Archive member included because of file (symbol)

cortex/vexlib/easyCRuntime/easyCRuntimeLib.lib(easyCRuntime.o)
                              cortex/vexlib/Startup/Startup.o (WriteUserBit)
cortex/vexlib/easyCRuntime/easyCRuntimeLib.lib(Clock.o)
                              cortex/vexlib/Startup/Startup.o (GetMsClock)
cortex/vexlib/easyCRuntime/easyCRuntimeLib.lib(Comm.o)
                              cortex/vexlib/Startup/Startup.o (slavePtr)
cortex/vexlib/easyCRuntime/easyCRuntimeLib.lib(Config.o)
                              cortex/vexlib/Startup/Startup.o (MCU_Configuration)
cortex/vexlib/easyCRuntime/easyCRuntimeLib.lib(InputOutput.o)
                              cortex/vexlib/easyCRuntime/easyCRuntimeLib.lib(Config.o) (ain_adc)
cortex/vexlib/easyCRuntime/easyCRuntimeLib.lib(Interrupts.o)
                              cortex/vexlib/easyCRuntime/easyCRuntimeLib.lib(Config.o) (InitializeInterrupts)
cortex/vexlib/easyCRuntime/easyCRuntimeLib.lib(LCD.o)
                              cortex/vexlib/easyCRuntime/easyCRuntimeLib.lib(Clock.o) (Process_Data_From_Local_IO)
cortex/vexlib/easyCRuntime/easyCRuntimeLib.lib(Motors.o)
                              cortex/vexlib/easyCRuntime/easyCRuntimeLib.lib(Comm.o) (Set_MotorControl_To_Neutral)
cortex/vexlib/easyCRuntime/easyCRuntimeLib.lib(OI.o)
                              cortex/vexlib/easyCRuntime/easyCRuntimeLib.lib(Motors.o) (GetJoystickAnalogReal)
cortex/vexlib/easyCRuntime/easyCRuntimeLib.lib(Print.o)
                              cortex/vexlib/Startup/Startup.o (PrintToScreen)
cortex/vexlib/easyCRuntime/easyCRuntimeLib.lib(stm32f10x_it.o)
                              cortex/vexlib/Startup/Startup.o (NMIException)
cortex/vexlib/easyCRuntime/easyCRuntimeLib.lib(ddt_support.o)
                              cortex/vexlib/easyCRuntime/easyCRuntimeLib.lib(Clock.o) (GetKey)
cortex/vexlib/easyCRuntime/easyCRuntimeLib.lib(stm32f10x_adc.o)
                              cortex/vexlib/easyCRuntime/easyCRuntimeLib.lib(Config.o) (ADC_Init)
cortex/vexlib/easyCRuntime/easyCRuntimeLib.lib(stm32f10x_dma.o)
                              cortex/vexlib/easyCRuntime/easyCRuntimeLib.lib(Config.o) (DMA_DeInit)
cortex/vexlib/easyCRuntime/easyCRuntimeLib.lib(stm32f10x_exti.o)
                              cortex/vexlib/easyCRuntime/easyCRuntimeLib.lib(Interrupts.o) (EXTI_GetITStatus)
cortex/vexlib/easyCRuntime/easyCRuntimeLib.lib(stm32f10x_flash.o)
                              cortex/vexlib/easyCRuntime/easyCRuntimeLib.lib(Config.o) (FLASH_SetLatency)
cortex/vexlib/easyCRuntime/easyCRuntimeLib.lib(stm32f10x_gpio.o)
                              cortex/vexlib/easyCRuntime/easyCRuntimeLib.lib(Config.o) (GPIO_Init)
cortex/vexlib/easyCRuntime/easyCRuntimeLib.lib(stm32f10x_nvic.o)
                              cortex/vexlib/easyCRuntime/easyCRuntimeLib.lib(Config.o) (NVIC_PriorityGroupConfig)
cortex/vexlib/easyCRuntime/easyCRuntimeLib.lib(stm32f10x_rcc.o)
                              cortex/vexlib/easyCRuntime/easyCRuntimeLib.lib(Config.o) (RCC_DeInit)
cortex/vexlib/easyCRuntime/easyCRuntimeLib.lib(stm32f10x_spi.o)
                              cortex/vexlib/easyCRuntime/easyCRuntimeLib.lib(Config.o) (SPI_Init)
cortex/vexlib/easyCRuntime/easyCRuntimeLib.lib(stm32f10x_systick.o)
                              cortex/vexlib/easyCRuntime/easyCRuntimeLib.lib(Config.o) (SysTick_SetReload)
cortex/vexlib/easyCRuntime/easyCRuntimeLib.lib(stm32f10x_tim.o)
                              cortex/vexlib/easyCRuntime/easyCRuntimeLib.lib(Config.o) (TIM_TimeBaseInit)
cortex/vexlib/easyCRuntime/easyCRuntimeLib.lib(stm32f10x_usart.o)
                              cortex/vexlib/easyCRuntime/easyCRuntimeLib.lib(Config.o) (USART_Init)
cortex/vexlib/easyCRuntime/easyCRuntimeLib.lib(cortexm3_macro.o)
                              cortex/vexlib/easyCRuntime/easyCRuntimeLib.lib(stm32f10x_nvic.o) (__RESETPRIMASK)
cortex/vexlib/Link/STM32x_io_putchar_thumb.a(syscalls.o)
                              (_write)
cortex/vexlib/Link/e_stdio_thumb.a(_sp_printf.o)
                              cortex/vexlib/easyCRuntime/easyCRuntimeLib.lib(Comm.o) (printf)
cortex/vexlib/Link/e_stdio_thumb.a(_sp_vfprintf.o)
                              cortex/vexlib/easyCRuntime/easyCRuntimeLib.lib(Print.o) (vfprintf)
cortex/vexlib/Link/e_stdio_thumb.a(_sp_puts.o)
                              cortex/vexlib/Link/e_stdio_thumb.a(_sp_vfprintf.o) (_SMALL_PRINTF_puts)
cortex/vexlib/Link/e_stdio_thumb.a(_sp_sprintf.o)
                              cortex/vexlib/easyCRuntime/easyCRuntimeLib.lib(Clock.o) (sprintf)
cortex/vexlib/Link/e_stdio_thumb.a(small_dtoa.o)
                              cortex/vexlib/Link/e_stdio_thumb.a(_sp_vfprintf.o) (_dtoa_r)
cortex/vexlib/Link/e_stdio_thumb.a(small_wcsrtombs.o)
                              cortex/vexlib/Link/e_stdio_thumb.a(_sp_vfprintf.o) (_wcsrtombs_r)
cortex/vexlib/Link/e_stdio_thumb.a(small_wcrtomb.o)
                              cortex/vexlib/Link/e_stdio_thumb.a(_sp_vfprintf.o) (_wcrtomb_r)
cortex/vexlib/Link/e_stdio_thumb.a(small_mprec.o)
                              cortex/vexlib/Link/e_stdio_thumb.a(small_dtoa.o) (_small_hi0bits)
c:/easyc/#tools/arm-gcc/bin/../lib/gcc/arm-none-eabi/4.3.2/../../../../arm-none-eabi/lib/thumb2/libc.a(lib_a-abort.o)
                              cortex/vexlib/Link/STM32x_io_putchar_thumb.a(syscalls.o) (abort)
c:/easyc/#tools/arm-gcc/bin/../lib/gcc/arm-none-eabi/4.3.2/../../../../arm-none-eabi/lib/thumb2/libc.a(lib_a-errno.o)
                              cortex/vexlib/Link/STM32x_io_putchar_thumb.a(syscalls.o) (__errno)
c:/easyc/#tools/arm-gcc/bin/../lib/gcc/arm-none-eabi/4.3.2/../../../../arm-none-eabi/lib/thumb2/libc.a(lib_a-impure.o)
                              cortex/vexlib/easyCRuntime/easyCRuntimeLib.lib(Print.o) (_impure_ptr)
c:/easyc/#tools/arm-gcc/bin/../lib/gcc/arm-none-eabi/4.3.2/../../../../arm-none-eabi/lib/thumb2/libc.a(lib_a-memchr.o)
                              cortex/vexlib/Link/e_stdio_thumb.a(_sp_vfprintf.o) (memchr)
c:/easyc/#tools/arm-gcc/bin/../lib/gcc/arm-none-eabi/4.3.2/../../../../arm-none-eabi/lib/thumb2/libc.a(lib_a-memcpy.o)
                              cortex/vexlib/Link/e_stdio_thumb.a(small_dtoa.o) (memcpy)
c:/easyc/#tools/arm-gcc/bin/../lib/gcc/arm-none-eabi/4.3.2/../../../../arm-none-eabi/lib/thumb2/libc.a(lib_a-memset.o)
                              cortex/vexlib/easyCRuntime/easyCRuntimeLib.lib(Clock.o) (memset)
c:/easyc/#tools/arm-gcc/bin/../lib/gcc/arm-none-eabi/4.3.2/../../../../arm-none-eabi/lib/thumb2/libc.a(lib_a-rand.o)
                              cortex/vexlib/easyCRuntime/easyCRuntimeLib.lib(easyCRuntime.o) (rand)
c:/easyc/#tools/arm-gcc/bin/../lib/gcc/arm-none-eabi/4.3.2/../../../../arm-none-eabi/lib/thumb2/libc.a(lib_a-s_isinfd.o)
                              cortex/vexlib/Link/e_stdio_thumb.a(_sp_vfprintf.o) (__isinfd)
c:/easyc/#tools/arm-gcc/bin/../lib/gcc/arm-none-eabi/4.3.2/../../../../arm-none-eabi/lib/thumb2/libc.a(lib_a-s_isnand.o)
                              cortex/vexlib/Link/e_stdio_thumb.a(_sp_vfprintf.o) (__isnand)
c:/easyc/#tools/arm-gcc/bin/../lib/gcc/arm-none-eabi/4.3.2/../../../../arm-none-eabi/lib/thumb2/libc.a(lib_a-signal.o)
                              c:/easyc/#tools/arm-gcc/bin/../lib/gcc/arm-none-eabi/4.3.2/../../../../arm-none-eabi/lib/thumb2/libc.a(lib_a-abort.o) (raise)
c:/easyc/#tools/arm-gcc/bin/../lib/gcc/arm-none-eabi/4.3.2/../../../../arm-none-eabi/lib/thumb2/libc.a(lib_a-signalr.o)
                              c:/easyc/#tools/arm-gcc/bin/../lib/gcc/arm-none-eabi/4.3.2/../../../../arm-none-eabi/lib/thumb2/libc.a(lib_a-signal.o) (_getpid_r)
c:/easyc/#tools/arm-gcc/bin/../lib/gcc/arm-none-eabi/4.3.2/../../../../arm-none-eabi/lib/thumb2/libc.a(lib_a-strlen.o)
                              cortex/vexlib/Link/e_stdio_thumb.a(_sp_vfprintf.o) (strlen)
c:/easyc/#tools/arm-gcc/bin/../lib/gcc/arm-none-eabi/4.3.2/../../../../arm-none-eabi/lib/thumb2/libc.a(lib_a-vsprintf.o)
                              cortex/vexlib/easyCRuntime/easyCRuntimeLib.lib(LCD.o) (vsprintf)
c:/easyc/#tools/arm-gcc/bin/../lib/gcc/arm-none-eabi/4.3.2/../../../../arm-none-eabi/lib/thumb2/libc.a(lib_a-malloc.o)
                              c:/easyc/#tools/arm-gcc/bin/../lib/gcc/arm-none-eabi/4.3.2/../../../../arm-none-eabi/lib/thumb2/libc.a(lib_a-rand.o) (malloc)
c:/easyc/#tools/arm-gcc/bin/../lib/gcc/arm-none-eabi/4.3.2/../../../../arm-none-eabi/lib/thumb2/libc.a(lib_a-mallocr.o)
                              c:/easyc/#tools/arm-gcc/bin/../lib/gcc/arm-none-eabi/4.3.2/../../../../arm-none-eabi/lib/thumb2/libc.a(lib_a-signal.o) (_malloc_r)
c:/easyc/#tools/arm-gcc/bin/../lib/gcc/arm-none-eabi/4.3.2/../../../../arm-none-eabi/lib/thumb2/libc.a(lib_a-mlock.o)
                              c:/easyc/#tools/arm-gcc/bin/../lib/gcc/arm-none-eabi/4.3.2/../../../../arm-none-eabi/lib/thumb2/libc.a(lib_a-mallocr.o) (__malloc_lock)
c:/easyc/#tools/arm-gcc/bin/../lib/gcc/arm-none-eabi/4.3.2/../../../../arm-none-eabi/lib/thumb2/libc.a(lib_a-reent.o)
                              c:/easyc/#tools/arm-gcc/bin/../lib/gcc/arm-none-eabi/4.3.2/../../../../arm-none-eabi/lib/thumb2/libc.a(lib_a-signalr.o) (errno)
c:/easyc/#tools/arm-gcc/bin/../lib/gcc/arm-none-eabi/4.3.2/../../../../arm-none-eabi/lib/thumb2/libc.a(lib_a-sbrkr.o)
                              c:/easyc/#tools/arm-gcc/bin/../lib/gcc/arm-none-eabi/4.3.2/../../../../arm-none-eabi/lib/thumb2/libc.a(lib_a-mallocr.o) (_sbrk_r)
c:/easyc/#tools/arm-gcc/bin/../lib/gcc/arm-none-eabi/4.3.2/../../../../arm-none-eabi/lib/thumb2/libc.a(lib_a-freer.o)
                              c:/easyc/#tools/arm-gcc/bin/../lib/gcc/arm-none-eabi/4.3.2/../../../../arm-none-eabi/lib/thumb2/libc.a(lib_a-malloc.o) (_free_r)
c:/easyc/#tools/arm-gcc/bin/../lib/gcc/arm-none-eabi/4.3.2/thumb2/libgcc.a(_udivsi3.o)
                              cortex/vexlib/Link/e_stdio_thumb.a(_sp_vfprintf.o) (__aeabi_uidiv)
c:/easyc/#tools/arm-gcc/bin/../lib/gcc/arm-none-eabi/4.3.2/thumb2/libgcc.a(_divsi3.o)
                              cortex/vexlib/Link/e_stdio_thumb.a(_sp_vfprintf.o) (__aeabi_idiv)
c:/easyc/#tools/arm-gcc/bin/../lib/gcc/arm-none-eabi/4.3.2/thumb2/libgcc.a(_dvmd_tls.o)
                              c:/easyc/#tools/arm-gcc/bin/../lib/gcc/arm-none-eabi/4.3.2/thumb2/libgcc.a(_udivsi3.o) (__aeabi_idiv0)
c:/easyc/#tools/arm-gcc/bin/../lib/gcc/arm-none-eabi/4.3.2/thumb2/libgcc.a(_arm_addsubdf3.o)
                              cortex/vexlib/Link/e_stdio_thumb.a(small_dtoa.o) (__aeabi_dsub)
c:/easyc/#tools/arm-gcc/bin/../lib/gcc/arm-none-eabi/4.3.2/thumb2/libgcc.a(_arm_muldivdf3.o)
                              cortex/vexlib/easyCRuntime/easyCRuntimeLib.lib(easyCRuntime.o) (__aeabi_dmul)
c:/easyc/#tools/arm-gcc/bin/../lib/gcc/arm-none-eabi/4.3.2/thumb2/libgcc.a(_arm_cmpdf2.o)
                              cortex/vexlib/Link/e_stdio_thumb.a(_sp_vfprintf.o) (__aeabi_dcmpeq)
c:/easyc/#tools/arm-gcc/bin/../lib/gcc/arm-none-eabi/4.3.2/thumb2/libgcc.a(_arm_fixdfsi.o)
                              cortex/vexlib/Link/e_stdio_thumb.a(small_dtoa.o) (__aeabi_d2iz)
c:/easyc/#tools/arm-gcc/bin/../lib/gcc/arm-none-eabi/4.3.2/thumb2/libgcc.a(_arm_fixunsdfsi.o)
                              cortex/vexlib/easyCRuntime/easyCRuntimeLib.lib(easyCRuntime.o) (__aeabi_d2uiz)
c:/easyc/#tools/arm-gcc/bin/../lib/gcc/arm-none-eabi/4.3.2/thumb2/libgcc.a(_arm_truncdfsf2.o)
                              cortex/vexlib/easyCRuntime/easyCRuntimeLib.lib(easyCRuntime.o) (__aeabi_d2f)
c:/easyc/#tools/arm-gcc/bin/../lib/gcc/arm-none-eabi/4.3.2/thumb2/libgcc.a(_arm_addsubsf3.o)
                              cortex/vexlib/easyCRuntime/easyCRuntimeLib.lib(Comm.o) (__aeabi_ui2f)
c:/easyc/#tools/arm-gcc/bin/../lib/gcc/arm-none-eabi/4.3.2/thumb2/libgcc.a(_arm_muldivsf3.o)
                              cortex/vexlib/easyCRuntime/easyCRuntimeLib.lib(Comm.o) (__aeabi_fdiv)
c:/easyc/#tools/arm-gcc/bin/../lib/gcc/arm-none-eabi/4.3.2/thumb2/libgcc.a(_arm_cmpsf2.o)
                              cortex/vexlib/easyCRuntime/easyCRuntimeLib.lib(easyCRuntime.o) (__aeabi_fcmplt)
c:/easyc/#tools/arm-gcc/bin/../lib/gcc/arm-none-eabi/4.3.2/thumb2/libgcc.a(_arm_fixunssfsi.o)
                              cortex/vexlib/easyCRuntime/easyCRuntimeLib.lib(Comm.o) (__aeabi_f2uiz)

Allocating common symbols
Common symbol       size              file

pwm1                0x28              cortex/vexlib/easyCRuntime/easyCRuntimeLib.lib(Clock.o)
pwm2                0x28              cortex/vexlib/easyCRuntime/easyCRuntimeLib.lib(Clock.o)
errno               0x4               c:/easyc/#tools/arm-gcc/bin/../lib/gcc/arm-none-eabi/4.3.2/../../../../arm-none-eabi/lib/thumb2/libc.a(lib_a-reent.o)
slaveJoystick1      0xc               cortex/vexlib/easyCRuntime/easyCRuntimeLib.lib(Comm.o)
rx1                 0x40              cortex/vexlib/easyCRuntime/easyCRuntimeLib.lib(Comm.o)
udpFrameIn          0x24              cortex/vexlib/easyCRuntime/easyCRuntimeLib.lib(LCD.o)
rx2                 0x40              cortex/vexlib/easyCRuntime/easyCRuntimeLib.lib(Comm.o)
SPI1_Buffer_Tx      0x40              cortex/vexlib/easyCRuntime/easyCRuntimeLib.lib(Comm.o)
SPI1_Buffer_Rx      0x40              cortex/vexlib/easyCRuntime/easyCRuntimeLib.lib(Comm.o)
slaveJoystick2      0xc               cortex/vexlib/easyCRuntime/easyCRuntimeLib.lib(Comm.o)

Discarded input sections

 .text          0x00000000        0x0 cortex/vexlib/Startup/Startup.o
 .data          0x00000000        0x0 cortex/vexlib/Startup/Startup.o
 .text          0x00000000        0x0 C:/Users\Mike\AppData\Roaming\Intelitek\easyC V4 for Cortex\Temp\Main.o
 .data          0x00000000        0x0 C:/Users\Mike\AppData\Roaming\Intelitek\easyC V4 for Cortex\Temp\Main.o
 .bss           0x00000000        0x0 C:/Users\Mike\AppData\Roaming\Intelitek\easyC V4 for Cortex\Temp\Main.o
 .text          0x00000000        0x0 C:/Users\Mike\AppData\Roaming\Intelitek\easyC V4 for Cortex\Temp\MainIO.o
 .data          0x00000000        0x0 C:/Users\Mike\AppData\Roaming\Intelitek\easyC V4 for Cortex\Temp\MainIO.o
 .bss           0x00000000        0x0 C:/Users\Mike\AppData\Roaming\Intelitek\easyC V4 for Cortex\Temp\MainIO.o
 .text          0x00000000        0x0 C:/Users\Mike\AppData\Roaming\Intelitek\easyC V4 for Cortex\Temp\Globals.o
 .data          0x00000000        0x0 C:/Users\Mike\AppData\Roaming\Intelitek\easyC V4 for Cortex\Temp\Globals.o
 .bss           0x00000000        0x0 C:/Users\Mike\AppData\Roaming\Intelitek\easyC V4 for Cortex\Temp\Globals.o
 .text          0x00000000        0x0 C:/Users\Mike\AppData\Roaming\Intelitek\easyC V4 for Cortex\Temp\Initialize.o
 .data          0x00000000        0x0 C:/Users\Mike\AppData\Roaming\Intelitek\easyC V4 for Cortex\Temp\Initialize.o
 .bss           0x00000000        0x0 C:/Users\Mike\AppData\Roaming\Intelitek\easyC V4 for Cortex\Temp\Initialize.o
 .text          0x00000000        0x0 C:/Users\Mike\AppData\Roaming\Intelitek\easyC V4 for Cortex\Temp\Autonomous.o
 .data          0x00000000        0x0 C:/Users\Mike\AppData\Roaming\Intelitek\easyC V4 for Cortex\Temp\Autonomous.o
 .bss           0x00000000        0x0 C:/Users\Mike\AppData\Roaming\Intelitek\easyC V4 for Cortex\Temp\Autonomous.o
 .text          0x00000000        0x0 C:/Users\Mike\AppData\Roaming\Intelitek\easyC V4 for Cortex\Temp\OperatorControl.o
 .data          0x00000000        0x0 C:/Users\Mike\AppData\Roaming\Intelitek\easyC V4 for Cortex\Temp\OperatorControl.o
 .bss           0x00000000        0x0 C:/Users\Mike\AppData\Roaming\Intelitek\easyC V4 for Cortex\Temp\OperatorControl.o
 .text          0x00000000        0x0 cortex/vexlib/easyCRuntime/easyCRuntimeLib.lib(easyCRuntime.o)
 .data          0x00000000        0x0 cortex/vexlib/easyCRuntime/easyCRuntimeLib.lib(easyCRuntime.o)
 .text.GetMainBattery
                0x00000000        0x0 cortex/vexlib/easyCRuntime/easyCRuntimeLib.lib(easyCRuntime.o)
 .text.GetBackupBattery
                0x00000000        0x0 cortex/vexlib/easyCRuntime/easyCRuntimeLib.lib(easyCRuntime.o)
 .text.GetRandomNumber
                0x00000000        0x0 cortex/vexlib/easyCRuntime/easyCRuntimeLib.lib(easyCRuntime.o)
 .text.SetDebugInfo
                0x00000000        0x0 cortex/vexlib/easyCRuntime/easyCRuntimeLib.lib(easyCRuntime.o)
 .text          0x00000000        0x0 cortex/vexlib/easyCRuntime/easyCRuntimeLib.lib(Clock.o)
 .data          0x00000000        0x0 cortex/vexlib/easyCRuntime/easyCRuntimeLib.lib(Clock.o)
 .text.GetUsClock
                0x00000000        0x0 cortex/vexlib/easyCRuntime/easyCRuntimeLib.lib(Clock.o)
 .text.GetSecondClock
                0x00000000        0x0 cortex/vexlib/easyCRuntime/easyCRuntimeLib.lib(Clock.o)
 .text.CheckTimerRange
                0x00000000        0x0 cortex/vexlib/easyCRuntime/easyCRuntimeLib.lib(Clock.o)
 .text.StartTimer
                0x00000000        0x0 cortex/vexlib/easyCRuntime/easyCRuntimeLib.lib(Clock.o)
 .text.StopTimer
                0x00000000        0x0 cortex/vexlib/easyCRuntime/easyCRuntimeLib.lib(Clock.o)
 .text.PresetTimer
                0x00000000        0x0 cortex/vexlib/easyCRuntime/easyCRuntimeLib.lib(Clock.o)
 .text.GetTimer
                0x00000000        0x0 cortex/vexlib/easyCRuntime/easyCRuntimeLib.lib(Clock.o)
 .text.RegisterRepeatingTimer
                0x00000000        0x0 cortex/vexlib/easyCRuntime/easyCRuntimeLib.lib(Clock.o)
 .text.CancelTimer
                0x00000000        0x0 cortex/vexlib/easyCRuntime/easyCRuntimeLib.lib(Clock.o)
 .text          0x00000000        0x0 cortex/vexlib/easyCRuntime/easyCRuntimeLib.lib(Comm.o)
 .text.SPI_Debug
                0x00000000        0x0 cortex/vexlib/easyCRuntime/easyCRuntimeLib.lib(Comm.o)
 .text.Handle_Operator_Control
                0x00000000        0x0 cortex/vexlib/easyCRuntime/easyCRuntimeLib.lib(Comm.o)
 .text.Handle_Crystal
                0x00000000        0x0 cortex/vexlib/easyCRuntime/easyCRuntimeLib.lib(Comm.o)
 .text.Handle_Autonomous
                0x00000000        0x0 cortex/vexlib/easyCRuntime/easyCRuntimeLib.lib(Comm.o)
 .text          0x00000000        0x0 cortex/vexlib/easyCRuntime/easyCRuntimeLib.lib(Config.o)
 .data          0x00000000        0x0 cortex/vexlib/easyCRuntime/easyCRuntimeLib.lib(Config.o)
 .bss           0x00000000        0x0 cortex/vexlib/easyCRuntime/easyCRuntimeLib.lib(Config.o)
 .text          0x00000000        0x0 cortex/vexlib/easyCRuntime/easyCRuntimeLib.lib(InputOutput.o)
 .text.GetDigitalOutput
                0x00000000        0x0 cortex/vexlib/easyCRuntime/easyCRuntimeLib.lib(InputOutput.o)
 .text          0x00000000        0x0 cortex/vexlib/easyCRuntime/easyCRuntimeLib.lib(Interrupts.o)
 .data          0x00000000        0x0 cortex/vexlib/easyCRuntime/easyCRuntimeLib.lib(Interrupts.o)
 .text.CheckIntPort
                0x00000000        0x0 cortex/vexlib/easyCRuntime/easyCRuntimeLib.lib(Interrupts.o)
 .rodata        0x00000000        0x0 cortex/vexlib/easyCRuntime/easyCRuntimeLib.lib(Interrupts.o)
 .text.RegisterInterruptHandler
                0x00000000        0x0 cortex/vexlib/easyCRuntime/easyCRuntimeLib.lib(Interrupts.o)
 .text.UnRegisterInterruptHandler
                0x00000000        0x0 cortex/vexlib/easyCRuntime/easyCRuntimeLib.lib(Interrupts.o)
 .text.SetInterruptEdge
                0x00000000        0x0 cortex/vexlib/easyCRuntime/easyCRuntimeLib.lib(Interrupts.o)
 .text          0x00000000        0x0 cortex/vexlib/easyCRuntime/easyCRuntimeLib.lib(LCD.o)
 .data          0x00000000        0x0 cortex/vexlib/easyCRuntime/easyCRuntimeLib.lib(LCD.o)
 .text.CheckUsartPort
                0x00000000        0x0 cortex/vexlib/easyCRuntime/easyCRuntimeLib.lib(LCD.o)
 .text.UpdateLCD
                0x00000000        0x0 cortex/vexlib/easyCRuntime/easyCRuntimeLib.lib(LCD.o)
 .text.HandlerLCDButtons
                0x00000000        0x0 cortex/vexlib/easyCRuntime/easyCRuntimeLib.lib(LCD.o)
 .text.RegisterUsartRxHandler
                0x00000000        0x0 cortex/vexlib/easyCRuntime/easyCRuntimeLib.lib(LCD.o)
 .rodata        0x00000000        0x0 cortex/vexlib/easyCRuntime/easyCRuntimeLib.lib(LCD.o)
 .text.StartLCDButtonsWatcher
                0x00000000        0x0 cortex/vexlib/easyCRuntime/easyCRuntimeLib.lib(LCD.o)
 .text.StopLCDButtonsWatcher
                0x00000000        0x0 cortex/vexlib/easyCRuntime/easyCRuntimeLib.lib(LCD.o)
 .text.GetLCDButtonsWatcher
                0x00000000        0x0 cortex/vexlib/easyCRuntime/easyCRuntimeLib.lib(LCD.o)
 .text.InitLCD  0x00000000        0x0 cortex/vexlib/easyCRuntime/easyCRuntimeLib.lib(LCD.o)
 .text.SetLCDText
                0x00000000        0x0 cortex/vexlib/easyCRuntime/easyCRuntimeLib.lib(LCD.o)
 .text.SetLCDLight
                0x00000000        0x0 cortex/vexlib/easyCRuntime/easyCRuntimeLib.lib(LCD.o)
 COMMON         0x00000000        0x0 cortex/vexlib/easyCRuntime/easyCRuntimeLib.lib(LCD.o)
 .text          0x00000000        0x0 cortex/vexlib/easyCRuntime/easyCRuntimeLib.lib(Motors.o)
 .data          0x00000000        0x0 cortex/vexlib/easyCRuntime/easyCRuntimeLib.lib(Motors.o)
 .text.SetMotor
                0x00000000        0x0 cortex/vexlib/easyCRuntime/easyCRuntimeLib.lib(Motors.o)
 .text.SetServo
                0x00000000        0x0 cortex/vexlib/easyCRuntime/easyCRuntimeLib.lib(Motors.o)
 .text.pwmLimit
                0x00000000        0x0 cortex/vexlib/easyCRuntime/easyCRuntimeLib.lib(Motors.o)
 .text.Tank2    0x00000000        0x0 cortex/vexlib/easyCRuntime/easyCRuntimeLib.lib(Motors.o)
 .text.Tank4    0x00000000        0x0 cortex/vexlib/easyCRuntime/easyCRuntimeLib.lib(Motors.o)
 .text.Arcade2  0x00000000        0x0 cortex/vexlib/easyCRuntime/easyCRuntimeLib.lib(Motors.o)
 .text.Arcade4  0x00000000        0x0 cortex/vexlib/easyCRuntime/easyCRuntimeLib.lib(Motors.o)
 .text          0x00000000        0x0 cortex/vexlib/easyCRuntime/easyCRuntimeLib.lib(OI.o)
 .data          0x00000000        0x0 cortex/vexlib/easyCRuntime/easyCRuntimeLib.lib(OI.o)
 .bss           0x00000000        0x0 cortex/vexlib/easyCRuntime/easyCRuntimeLib.lib(OI.o)
 .text.ReceivingData
                0x00000000        0x0 cortex/vexlib/easyCRuntime/easyCRuntimeLib.lib(OI.o)
 .text.AdjustPort
                0x00000000        0x0 cortex/vexlib/easyCRuntime/easyCRuntimeLib.lib(OI.o)
 .rodata        0x00000000        0x0 cortex/vexlib/easyCRuntime/easyCRuntimeLib.lib(OI.o)
 .text.GetJoystickData
                0x00000000        0x0 cortex/vexlib/easyCRuntime/easyCRuntimeLib.lib(OI.o)
 .text.AdjustJoystickAnalog
                0x00000000        0x0 cortex/vexlib/easyCRuntime/easyCRuntimeLib.lib(OI.o)
 .text.GetJoystickAnalogReal
                0x00000000        0x0 cortex/vexlib/easyCRuntime/easyCRuntimeLib.lib(OI.o)
 .text.GetJoystickAnalog
                0x00000000        0x0 cortex/vexlib/easyCRuntime/easyCRuntimeLib.lib(OI.o)
 .text.GetJoystickDigital
                0x00000000        0x0 cortex/vexlib/easyCRuntime/easyCRuntimeLib.lib(OI.o)
 .text.GetJoystickAccelerometer
                0x00000000        0x0 cortex/vexlib/easyCRuntime/easyCRuntimeLib.lib(OI.o)
 .text.GetJoystickAccelerometerEx
                0x00000000        0x0 cortex/vexlib/easyCRuntime/easyCRuntimeLib.lib(OI.o)
 .text.JoystickToMotor
                0x00000000        0x0 cortex/vexlib/easyCRuntime/easyCRuntimeLib.lib(OI.o)
 .text.JoystickToServo
                0x00000000        0x0 cortex/vexlib/easyCRuntime/easyCRuntimeLib.lib(OI.o)
 .text.JoystickToMotorAndLimit
                0x00000000        0x0 cortex/vexlib/easyCRuntime/easyCRuntimeLib.lib(OI.o)
 .text.JoystickToDigitalOutput
                0x00000000        0x0 cortex/vexlib/easyCRuntime/easyCRuntimeLib.lib(OI.o)
 .text          0x00000000        0x0 cortex/vexlib/easyCRuntime/easyCRuntimeLib.lib(Print.o)
 .data          0x00000000        0x0 cortex/vexlib/easyCRuntime/easyCRuntimeLib.lib(Print.o)
 .bss           0x00000000        0x0 cortex/vexlib/easyCRuntime/easyCRuntimeLib.lib(Print.o)
 .text.SetGDWaitTime
                0x00000000        0x0 cortex/vexlib/easyCRuntime/easyCRuntimeLib.lib(Print.o)
 .rodata        0x00000000        0x0 cortex/vexlib/easyCRuntime/easyCRuntimeLib.lib(Print.o)
 .text.ResetGD  0x00000000        0x0 cortex/vexlib/easyCRuntime/easyCRuntimeLib.lib(Print.o)
 .text.ClearGD  0x00000000        0x0 cortex/vexlib/easyCRuntime/easyCRuntimeLib.lib(Print.o)
 .text.PrintTextToGD
                0x00000000        0x0 cortex/vexlib/easyCRuntime/easyCRuntimeLib.lib(Print.o)
 .text.PrintFrameToGD
                0x00000000        0x0 cortex/vexlib/easyCRuntime/easyCRuntimeLib.lib(Print.o)
 .text          0x00000000        0x0 cortex/vexlib/easyCRuntime/easyCRuntimeLib.lib(stm32f10x_it.o)
 .data          0x00000000        0x0 cortex/vexlib/easyCRuntime/easyCRuntimeLib.lib(stm32f10x_it.o)
 .text          0x00000000        0x0 cortex/vexlib/easyCRuntime/easyCRuntimeLib.lib(ddt_support.o)
 .data          0x00000000        0x0 cortex/vexlib/easyCRuntime/easyCRuntimeLib.lib(ddt_support.o)
 .text          0x00000000        0x0 cortex/vexlib/easyCRuntime/easyCRuntimeLib.lib(stm32f10x_adc.o)
 .data          0x00000000        0x0 cortex/vexlib/easyCRuntime/easyCRuntimeLib.lib(stm32f10x_adc.o)
 .bss           0x00000000        0x0 cortex/vexlib/easyCRuntime/easyCRuntimeLib.lib(stm32f10x_adc.o)
 .text.ADC_DeInit
                0x00000000        0x0 cortex/vexlib/easyCRuntime/easyCRuntimeLib.lib(stm32f10x_adc.o)
 .text.ADC_StructInit
                0x00000000        0x0 cortex/vexlib/easyCRuntime/easyCRuntimeLib.lib(stm32f10x_adc.o)
 .text.ADC_ITConfig
                0x00000000        0x0 cortex/vexlib/easyCRuntime/easyCRuntimeLib.lib(stm32f10x_adc.o)
 .text.ADC_GetSoftwareStartConvStatus
                0x00000000        0x0 cortex/vexlib/easyCRuntime/easyCRuntimeLib.lib(stm32f10x_adc.o)
 .text.ADC_DiscModeChannelCountConfig
                0x00000000        0x0 cortex/vexlib/easyCRuntime/easyCRuntimeLib.lib(stm32f10x_adc.o)
 .text.ADC_DiscModeCmd
                0x00000000        0x0 cortex/vexlib/easyCRuntime/easyCRuntimeLib.lib(stm32f10x_adc.o)
 .text.ADC_ExternalTrigConvCmd
                0x00000000        0x0 cortex/vexlib/easyCRuntime/easyCRuntimeLib.lib(stm32f10x_adc.o)
 .text.ADC_GetConversionValue
                0x00000000        0x0 cortex/vexlib/easyCRuntime/easyCRuntimeLib.lib(stm32f10x_adc.o)
 .text.ADC_GetDualModeConversionValue
                0x00000000        0x0 cortex/vexlib/easyCRuntime/easyCRuntimeLib.lib(stm32f10x_adc.o)
 .text.ADC_AutoInjectedConvCmd
                0x00000000        0x0 cortex/vexlib/easyCRuntime/easyCRuntimeLib.lib(stm32f10x_adc.o)
 .text.ADC_InjectedDiscModeCmd
                0x00000000        0x0 cortex/vexlib/easyCRuntime/easyCRuntimeLib.lib(stm32f10x_adc.o)
 .text.ADC_ExternalTrigInjectedConvConfig
                0x00000000        0x0 cortex/vexlib/easyCRuntime/easyCRuntimeLib.lib(stm32f10x_adc.o)
 .text.ADC_ExternalTrigInjectedConvCmd
                0x00000000        0x0 cortex/vexlib/easyCRuntime/easyCRuntimeLib.lib(stm32f10x_adc.o)
 .text.ADC_SoftwareStartInjectedConvCmd
                0x00000000        0x0 cortex/vexlib/easyCRuntime/easyCRuntimeLib.lib(stm32f10x_adc.o)
 .text.ADC_GetSoftwareStartInjectedConvCmdStatus
                0x00000000        0x0 cortex/vexlib/easyCRuntime/easyCRuntimeLib.lib(stm32f10x_adc.o)
 .text.ADC_InjectedChannelConfig
                0x00000000        0x0 cortex/vexlib/easyCRuntime/easyCRuntimeLib.lib(stm32f10x_adc.o)
 .text.ADC_InjectedSequencerLengthConfig
                0x00000000        0x0 cortex/vexlib/easyCRuntime/easyCRuntimeLib.lib(stm32f10x_adc.o)
 .text.ADC_SetInjectedOffset
                0x00000000        0x0 cortex/vexlib/easyCRuntime/easyCRuntimeLib.lib(stm32f10x_adc.o)
 .text.ADC_GetInjectedConversionValue
                0x00000000        0x0 cortex/vexlib/easyCRuntime/easyCRuntimeLib.lib(stm32f10x_adc.o)
 .text.ADC_AnalogWatchdogCmd
                0x00000000        0x0 cortex/vexlib/easyCRuntime/easyCRuntimeLib.lib(stm32f10x_adc.o)
 .text.ADC_AnalogWatchdogThresholdsConfig
                0x00000000        0x0 cortex/vexlib/easyCRuntime/easyCRuntimeLib.lib(stm32f10x_adc.o)
 .text.ADC_AnalogWatchdogSingleChannelConfig
                0x00000000        0x0 cortex/vexlib/easyCRuntime/easyCRuntimeLib.lib(stm32f10x_adc.o)
 .text.ADC_TempSensorVrefintCmd
                0x00000000        0x0 cortex/vexlib/easyCRuntime/easyCRuntimeLib.lib(stm32f10x_adc.o)
 .text.ADC_GetFlagStatus
                0x00000000        0x0 cortex/vexlib/easyCRuntime/easyCRuntimeLib.lib(stm32f10x_adc.o)
 .text.ADC_ClearFlag
                0x00000000        0x0 cortex/vexlib/easyCRuntime/easyCRuntimeLib.lib(stm32f10x_adc.o)
 .text.ADC_GetITStatus
                0x00000000        0x0 cortex/vexlib/easyCRuntime/easyCRuntimeLib.lib(stm32f10x_adc.o)
 .text.ADC_ClearITPendingBit
                0x00000000        0x0 cortex/vexlib/easyCRuntime/easyCRuntimeLib.lib(stm32f10x_adc.o)
 .text          0x00000000        0x0 cortex/vexlib/easyCRuntime/easyCRuntimeLib.lib(stm32f10x_dma.o)
 .data          0x00000000        0x0 cortex/vexlib/easyCRuntime/easyCRuntimeLib.lib(stm32f10x_dma.o)
 .bss           0x00000000        0x0 cortex/vexlib/easyCRuntime/easyCRuntimeLib.lib(stm32f10x_dma.o)
 .text.DMA_StructInit
                0x00000000        0x0 cortex/vexlib/easyCRuntime/easyCRuntimeLib.lib(stm32f10x_dma.o)
 .text.DMA_ITConfig
                0x00000000        0x0 cortex/vexlib/easyCRuntime/easyCRuntimeLib.lib(stm32f10x_dma.o)
 .text.DMA_GetCurrDataCounter
                0x00000000        0x0 cortex/vexlib/easyCRuntime/easyCRuntimeLib.lib(stm32f10x_dma.o)
 .text.DMA_GetFlagStatus
                0x00000000        0x0 cortex/vexlib/easyCRuntime/easyCRuntimeLib.lib(stm32f10x_dma.o)
 .text.DMA_ClearFlag
                0x00000000        0x0 cortex/vexlib/easyCRuntime/easyCRuntimeLib.lib(stm32f10x_dma.o)
 .text.DMA_GetITStatus
                0x00000000        0x0 cortex/vexlib/easyCRuntime/easyCRuntimeLib.lib(stm32f10x_dma.o)
 .text.DMA_ClearITPendingBit
                0x00000000        0x0 cortex/vexlib/easyCRuntime/easyCRuntimeLib.lib(stm32f10x_dma.o)
 .text          0x00000000        0x0 cortex/vexlib/easyCRuntime/easyCRuntimeLib.lib(stm32f10x_exti.o)
 .data          0x00000000        0x0 cortex/vexlib/easyCRuntime/easyCRuntimeLib.lib(stm32f10x_exti.o)
 .bss           0x00000000        0x0 cortex/vexlib/easyCRuntime/easyCRuntimeLib.lib(stm32f10x_exti.o)
 .text.EXTI_DeInit
                0x00000000        0x0 cortex/vexlib/easyCRuntime/easyCRuntimeLib.lib(stm32f10x_exti.o)
 .text.EXTI_Init
                0x00000000        0x0 cortex/vexlib/easyCRuntime/easyCRuntimeLib.lib(stm32f10x_exti.o)
 .text.EXTI_StructInit
                0x00000000        0x0 cortex/vexlib/easyCRuntime/easyCRuntimeLib.lib(stm32f10x_exti.o)
 .text.EXTI_GenerateSWInterrupt
                0x00000000        0x0 cortex/vexlib/easyCRuntime/easyCRuntimeLib.lib(stm32f10x_exti.o)
 .text.EXTI_GetFlagStatus
                0x00000000        0x0 cortex/vexlib/easyCRuntime/easyCRuntimeLib.lib(stm32f10x_exti.o)
 .text.EXTI_ClearFlag
                0x00000000        0x0 cortex/vexlib/easyCRuntime/easyCRuntimeLib.lib(stm32f10x_exti.o)
 .text          0x00000000        0x0 cortex/vexlib/easyCRuntime/easyCRuntimeLib.lib(stm32f10x_flash.o)
 .data          0x00000000        0x0 cortex/vexlib/easyCRuntime/easyCRuntimeLib.lib(stm32f10x_flash.o)
 .bss           0x00000000        0x0 cortex/vexlib/easyCRuntime/easyCRuntimeLib.lib(stm32f10x_flash.o)
 .text.FLASH_HalfCycleAccessCmd
                0x00000000        0x0 cortex/vexlib/easyCRuntime/easyCRuntimeLib.lib(stm32f10x_flash.o)
 .text          0x00000000        0x0 cortex/vexlib/easyCRuntime/easyCRuntimeLib.lib(stm32f10x_gpio.o)
 .data          0x00000000        0x0 cortex/vexlib/easyCRuntime/easyCRuntimeLib.lib(stm32f10x_gpio.o)
 .bss           0x00000000        0x0 cortex/vexlib/easyCRuntime/easyCRuntimeLib.lib(stm32f10x_gpio.o)
 .text.GPIO_DeInit
                0x00000000        0x0 cortex/vexlib/easyCRuntime/easyCRuntimeLib.lib(stm32f10x_gpio.o)
 .text.GPIO_AFIODeInit
                0x00000000        0x0 cortex/vexlib/easyCRuntime/easyCRuntimeLib.lib(stm32f10x_gpio.o)
 .text.GPIO_StructInit
                0x00000000        0x0 cortex/vexlib/easyCRuntime/easyCRuntimeLib.lib(stm32f10x_gpio.o)
 .text.GPIO_ReadInputData
                0x00000000        0x0 cortex/vexlib/easyCRuntime/easyCRuntimeLib.lib(stm32f10x_gpio.o)
 .text.GPIO_Write
                0x00000000        0x0 cortex/vexlib/easyCRuntime/easyCRuntimeLib.lib(stm32f10x_gpio.o)
 .text.GPIO_PinLockConfig
                0x00000000        0x0 cortex/vexlib/easyCRuntime/easyCRuntimeLib.lib(stm32f10x_gpio.o)
 .text.GPIO_EventOutputConfig
                0x00000000        0x0 cortex/vexlib/easyCRuntime/easyCRuntimeLib.lib(stm32f10x_gpio.o)
 .text.GPIO_EventOutputCmd
                0x00000000        0x0 cortex/vexlib/easyCRuntime/easyCRuntimeLib.lib(stm32f10x_gpio.o)
 .text.GPIO_EXTILineConfig
                0x00000000        0x0 cortex/vexlib/easyCRuntime/easyCRuntimeLib.lib(stm32f10x_gpio.o)
 .text          0x00000000        0x0 cortex/vexlib/easyCRuntime/easyCRuntimeLib.lib(stm32f10x_nvic.o)
 .data          0x00000000        0x0 cortex/vexlib/easyCRuntime/easyCRuntimeLib.lib(stm32f10x_nvic.o)
 .bss           0x00000000        0x0 cortex/vexlib/easyCRuntime/easyCRuntimeLib.lib(stm32f10x_nvic.o)
 .text.NVIC_DeInit
                0x00000000        0x0 cortex/vexlib/easyCRuntime/easyCRuntimeLib.lib(stm32f10x_nvic.o)
 .text.NVIC_SCBDeInit
                0x00000000        0x0 cortex/vexlib/easyCRuntime/easyCRuntimeLib.lib(stm32f10x_nvic.o)
 .text.NVIC_StructInit
                0x00000000        0x0 cortex/vexlib/easyCRuntime/easyCRuntimeLib.lib(stm32f10x_nvic.o)
 .text.NVIC_SETPRIMASK
                0x00000000        0x0 cortex/vexlib/easyCRuntime/easyCRuntimeLib.lib(stm32f10x_nvic.o)
 .text.NVIC_RESETPRIMASK
                0x00000000        0x0 cortex/vexlib/easyCRuntime/easyCRuntimeLib.lib(stm32f10x_nvic.o)
 .text.NVIC_SETFAULTMASK
                0x00000000        0x0 cortex/vexlib/easyCRuntime/easyCRuntimeLib.lib(stm32f10x_nvic.o)
 .text.NVIC_RESETFAULTMASK
                0x00000000        0x0 cortex/vexlib/easyCRuntime/easyCRuntimeLib.lib(stm32f10x_nvic.o)
 .text.NVIC_BASEPRICONFIG
                0x00000000        0x0 cortex/vexlib/easyCRuntime/easyCRuntimeLib.lib(stm32f10x_nvic.o)
 .text.NVIC_GetBASEPRI
                0x00000000        0x0 cortex/vexlib/easyCRuntime/easyCRuntimeLib.lib(stm32f10x_nvic.o)
 .text.NVIC_GetCurrentPendingIRQChannel
                0x00000000        0x0 cortex/vexlib/easyCRuntime/easyCRuntimeLib.lib(stm32f10x_nvic.o)
 .text.NVIC_GetIRQChannelPendingBitStatus
                0x00000000        0x0 cortex/vexlib/easyCRuntime/easyCRuntimeLib.lib(stm32f10x_nvic.o)
 .text.NVIC_SetIRQChannelPendingBit
                0x00000000        0x0 cortex/vexlib/easyCRuntime/easyCRuntimeLib.lib(stm32f10x_nvic.o)
 .text.NVIC_ClearIRQChannelPendingBit
                0x00000000        0x0 cortex/vexlib/easyCRuntime/easyCRuntimeLib.lib(stm32f10x_nvic.o)
 .text.NVIC_GetCurrentActiveHandler
                0x00000000        0x0 cortex/vexlib/easyCRuntime/easyCRuntimeLib.lib(stm32f10x_nvic.o)
 .text.NVIC_GetIRQChannelActiveBitStatus
                0x00000000        0x0 cortex/vexlib/easyCRuntime/easyCRuntimeLib.lib(stm32f10x_nvic.o)
 .text.NVIC_GetCPUID
                0x00000000        0x0 cortex/vexlib/easyCRuntime/easyCRuntimeLib.lib(stm32f10x_nvic.o)
 .text.NVIC_GenerateSystemReset
                0x00000000        0x0 cortex/vexlib/easyCRuntime/easyCRuntimeLib.lib(stm32f10x_nvic.o)
 .text.NVIC_SystemLPConfig
                0x00000000        0x0 cortex/vexlib/easyCRuntime/easyCRuntimeLib.lib(stm32f10x_nvic.o)
 .text.NVIC_SystemHandlerConfig
                0x00000000        0x0 cortex/vexlib/easyCRuntime/easyCRuntimeLib.lib(stm32f10x_nvic.o)
 .text.NVIC_SystemHandlerPriorityConfig
                0x00000000        0x0 cortex/vexlib/easyCRuntime/easyCRuntimeLib.lib(stm32f10x_nvic.o)
 .text.NVIC_GetSystemHandlerPendingBitStatus
                0x00000000        0x0 cortex/vexlib/easyCRuntime/easyCRuntimeLib.lib(stm32f10x_nvic.o)
 .text.NVIC_SetSystemHandlerPendingBit
                0x00000000        0x0 cortex/vexlib/easyCRuntime/easyCRuntimeLib.lib(stm32f10x_nvic.o)
 .text.NVIC_ClearSystemHandlerPendingBit
                0x00000000        0x0 cortex/vexlib/easyCRuntime/easyCRuntimeLib.lib(stm32f10x_nvic.o)
 .text.NVIC_GetSystemHandlerActiveBitStatus
                0x00000000        0x0 cortex/vexlib/easyCRuntime/easyCRuntimeLib.lib(stm32f10x_nvic.o)
 .text.NVIC_GetFaultHandlerSources
                0x00000000        0x0 cortex/vexlib/easyCRuntime/easyCRuntimeLib.lib(stm32f10x_nvic.o)
 .text.NVIC_GetFaultAddress
                0x00000000        0x0 cortex/vexlib/easyCRuntime/easyCRuntimeLib.lib(stm32f10x_nvic.o)
 .text          0x00000000        0x0 cortex/vexlib/easyCRuntime/easyCRuntimeLib.lib(stm32f10x_rcc.o)
 .data          0x00000000        0x0 cortex/vexlib/easyCRuntime/easyCRuntimeLib.lib(stm32f10x_rcc.o)
 .bss           0x00000000        0x0 cortex/vexlib/easyCRuntime/easyCRuntimeLib.lib(stm32f10x_rcc.o)
 .text.RCC_AdjustHSICalibrationValue
                0x00000000        0x0 cortex/vexlib/easyCRuntime/easyCRuntimeLib.lib(stm32f10x_rcc.o)
 .text.RCC_HSICmd
                0x00000000        0x0 cortex/vexlib/easyCRuntime/easyCRuntimeLib.lib(stm32f10x_rcc.o)
 .text.RCC_ITConfig
                0x00000000        0x0 cortex/vexlib/easyCRuntime/easyCRuntimeLib.lib(stm32f10x_rcc.o)
 .text.RCC_USBCLKConfig
                0x00000000        0x0 cortex/vexlib/easyCRuntime/easyCRuntimeLib.lib(stm32f10x_rcc.o)
 .text.RCC_LSEConfig
                0x00000000        0x0 cortex/vexlib/easyCRuntime/easyCRuntimeLib.lib(stm32f10x_rcc.o)
 .text.RCC_LSICmd
                0x00000000        0x0 cortex/vexlib/easyCRuntime/easyCRuntimeLib.lib(stm32f10x_rcc.o)
 .text.RCC_RTCCLKConfig
                0x00000000        0x0 cortex/vexlib/easyCRuntime/easyCRuntimeLib.lib(stm32f10x_rcc.o)
 .text.RCC_RTCCLKCmd
                0x00000000        0x0 cortex/vexlib/easyCRuntime/easyCRuntimeLib.lib(stm32f10x_rcc.o)
 .text.RCC_APB2PeriphResetCmd
                0x00000000        0x0 cortex/vexlib/easyCRuntime/easyCRuntimeLib.lib(stm32f10x_rcc.o)
 .text.RCC_APB1PeriphResetCmd
                0x00000000        0x0 cortex/vexlib/easyCRuntime/easyCRuntimeLib.lib(stm32f10x_rcc.o)
 .text.RCC_BackupResetCmd
                0x00000000        0x0 cortex/vexlib/easyCRuntime/easyCRuntimeLib.lib(stm32f10x_rcc.o)
 .text.RCC_ClockSecuritySystemCmd
                0x00000000        0x0 cortex/vexlib/easyCRuntime/easyCRuntimeLib.lib(stm32f10x_rcc.o)
 .text.RCC_MCOConfig
                0x00000000        0x0 cortex/vexlib/easyCRuntime/easyCRuntimeLib.lib(stm32f10x_rcc.o)
 .text.RCC_ClearFlag
                0x00000000        0x0 cortex/vexlib/easyCRuntime/easyCRuntimeLib.lib(stm32f10x_rcc.o)
 .text.RCC_GetITStatus
                0x00000000        0x0 cortex/vexlib/easyCRuntime/easyCRuntimeLib.lib(stm32f10x_rcc.o)
 .text.RCC_ClearITPendingBit
                0x00000000        0x0 cortex/vexlib/easyCRuntime/easyCRuntimeLib.lib(stm32f10x_rcc.o)
 .text          0x00000000        0x0 cortex/vexlib/easyCRuntime/easyCRuntimeLib.lib(stm32f10x_spi.o)
 .data          0x00000000        0x0 cortex/vexlib/easyCRuntime/easyCRuntimeLib.lib(stm32f10x_spi.o)
 .bss           0x00000000        0x0 cortex/vexlib/easyCRuntime/easyCRuntimeLib.lib(stm32f10x_spi.o)
 .text.SPI_I2S_DeInit
                0x00000000        0x0 cortex/vexlib/easyCRuntime/easyCRuntimeLib.lib(stm32f10x_spi.o)
 .text.I2S_Init
                0x00000000        0x0 cortex/vexlib/easyCRuntime/easyCRuntimeLib.lib(stm32f10x_spi.o)
 .text.SPI_StructInit
                0x00000000        0x0 cortex/vexlib/easyCRuntime/easyCRuntimeLib.lib(stm32f10x_spi.o)
 .text.I2S_StructInit
                0x00000000        0x0 cortex/vexlib/easyCRuntime/easyCRuntimeLib.lib(stm32f10x_spi.o)
 .text.I2S_Cmd  0x00000000        0x0 cortex/vexlib/easyCRuntime/easyCRuntimeLib.lib(stm32f10x_spi.o)
 .text.SPI_I2S_ITConfig
                0x00000000        0x0 cortex/vexlib/easyCRuntime/easyCRuntimeLib.lib(stm32f10x_spi.o)
 .text.SPI_I2S_DMACmd
                0x00000000        0x0 cortex/vexlib/easyCRuntime/easyCRuntimeLib.lib(stm32f10x_spi.o)
 .text.SPI_NSSInternalSoftwareConfig
                0x00000000        0x0 cortex/vexlib/easyCRuntime/easyCRuntimeLib.lib(stm32f10x_spi.o)
 .text.SPI_SSOutputCmd
                0x00000000        0x0 cortex/vexlib/easyCRuntime/easyCRuntimeLib.lib(stm32f10x_spi.o)
 .text.SPI_DataSizeConfig
                0x00000000        0x0 cortex/vexlib/easyCRuntime/easyCRuntimeLib.lib(stm32f10x_spi.o)
 .text.SPI_TransmitCRC
                0x00000000        0x0 cortex/vexlib/easyCRuntime/easyCRuntimeLib.lib(stm32f10x_spi.o)
 .text.SPI_CalculateCRC
                0x00000000        0x0 cortex/vexlib/easyCRuntime/easyCRuntimeLib.lib(stm32f10x_spi.o)
 .text.SPI_GetCRC
                0x00000000        0x0 cortex/vexlib/easyCRuntime/easyCRuntimeLib.lib(stm32f10x_spi.o)
 .text.SPI_GetCRCPolynomial
                0x00000000        0x0 cortex/vexlib/easyCRuntime/easyCRuntimeLib.lib(stm32f10x_spi.o)
 .text.SPI_BiDirectionalLineConfig
                0x00000000        0x0 cortex/vexlib/easyCRuntime/easyCRuntimeLib.lib(stm32f10x_spi.o)
 .text.SPI_I2S_ClearFlag
                0x00000000        0x0 cortex/vexlib/easyCRuntime/easyCRuntimeLib.lib(stm32f10x_spi.o)
 .text.SPI_I2S_GetITStatus
                0x00000000        0x0 cortex/vexlib/easyCRuntime/easyCRuntimeLib.lib(stm32f10x_spi.o)
 .text.SPI_I2S_ClearITPendingBit
                0x00000000        0x0 cortex/vexlib/easyCRuntime/easyCRuntimeLib.lib(stm32f10x_spi.o)
 .text          0x00000000        0x0 cortex/vexlib/easyCRuntime/easyCRuntimeLib.lib(stm32f10x_systick.o)
 .data          0x00000000        0x0 cortex/vexlib/easyCRuntime/easyCRuntimeLib.lib(stm32f10x_systick.o)
 .bss           0x00000000        0x0 cortex/vexlib/easyCRuntime/easyCRuntimeLib.lib(stm32f10x_systick.o)
 .text.SysTick_CLKSourceConfig
                0x00000000        0x0 cortex/vexlib/easyCRuntime/easyCRuntimeLib.lib(stm32f10x_systick.o)
 .text.SysTick_GetCounter
                0x00000000        0x0 cortex/vexlib/easyCRuntime/easyCRuntimeLib.lib(stm32f10x_systick.o)
 .text.SysTick_GetFlagStatus
                0x00000000        0x0 cortex/vexlib/easyCRuntime/easyCRuntimeLib.lib(stm32f10x_systick.o)
 .text          0x00000000        0x0 cortex/vexlib/easyCRuntime/easyCRuntimeLib.lib(stm32f10x_tim.o)
 .data          0x00000000        0x0 cortex/vexlib/easyCRuntime/easyCRuntimeLib.lib(stm32f10x_tim.o)
 .bss           0x00000000        0x0 cortex/vexlib/easyCRuntime/easyCRuntimeLib.lib(stm32f10x_tim.o)
 .text.TIM_DeInit
                0x00000000        0x0 cortex/vexlib/easyCRuntime/easyCRuntimeLib.lib(stm32f10x_tim.o)
 .text.TIM_OC1Init
                0x00000000        0x0 cortex/vexlib/easyCRuntime/easyCRuntimeLib.lib(stm32f10x_tim.o)
 .text.TIM_OC2Init
                0x00000000        0x0 cortex/vexlib/easyCRuntime/easyCRuntimeLib.lib(stm32f10x_tim.o)
 .text.TIM_OC3Init
                0x00000000        0x0 cortex/vexlib/easyCRuntime/easyCRuntimeLib.lib(stm32f10x_tim.o)
 .text.TIM_OC4Init
                0x00000000        0x0 cortex/vexlib/easyCRuntime/easyCRuntimeLib.lib(stm32f10x_tim.o)
 .text.TIM_ICInit
                0x00000000        0x0 cortex/vexlib/easyCRuntime/easyCRuntimeLib.lib(stm32f10x_tim.o)
 .text.TIM_PWMIConfig
                0x00000000        0x0 cortex/vexlib/easyCRuntime/easyCRuntimeLib.lib(stm32f10x_tim.o)
 .text.TIM_BDTRConfig
                0x00000000        0x0 cortex/vexlib/easyCRuntime/easyCRuntimeLib.lib(stm32f10x_tim.o)
 .text.TIM_TimeBaseStructInit
                0x00000000        0x0 cortex/vexlib/easyCRuntime/easyCRuntimeLib.lib(stm32f10x_tim.o)
 .text.TIM_OCStructInit
                0x00000000        0x0 cortex/vexlib/easyCRuntime/easyCRuntimeLib.lib(stm32f10x_tim.o)
 .text.TIM_ICStructInit
                0x00000000        0x0 cortex/vexlib/easyCRuntime/easyCRuntimeLib.lib(stm32f10x_tim.o)
 .text.TIM_BDTRStructInit
                0x00000000        0x0 cortex/vexlib/easyCRuntime/easyCRuntimeLib.lib(stm32f10x_tim.o)
 .text.TIM_CtrlPWMOutputs
                0x00000000        0x0 cortex/vexlib/easyCRuntime/easyCRuntimeLib.lib(stm32f10x_tim.o)
 .text.TIM_GenerateEvent
                0x00000000        0x0 cortex/vexlib/easyCRuntime/easyCRuntimeLib.lib(stm32f10x_tim.o)
 .text.TIM_DMAConfig
                0x00000000        0x0 cortex/vexlib/easyCRuntime/easyCRuntimeLib.lib(stm32f10x_tim.o)
 .text.TIM_DMACmd
                0x00000000        0x0 cortex/vexlib/easyCRuntime/easyCRuntimeLib.lib(stm32f10x_tim.o)
 .text.TIM_InternalClockConfig
                0x00000000        0x0 cortex/vexlib/easyCRuntime/easyCRuntimeLib.lib(stm32f10x_tim.o)
 .text.TIM_ITRxExternalClockConfig
                0x00000000        0x0 cortex/vexlib/easyCRuntime/easyCRuntimeLib.lib(stm32f10x_tim.o)
 .text.TIM_TIxExternalClockConfig
                0x00000000        0x0 cortex/vexlib/easyCRuntime/easyCRuntimeLib.lib(stm32f10x_tim.o)
 .text.TIM_ETRClockMode1Config
                0x00000000        0x0 cortex/vexlib/easyCRuntime/easyCRuntimeLib.lib(stm32f10x_tim.o)
 .text.TIM_ETRClockMode2Config
                0x00000000        0x0 cortex/vexlib/easyCRuntime/easyCRuntimeLib.lib(stm32f10x_tim.o)
 .text.TIM_ETRConfig
                0x00000000        0x0 cortex/vexlib/easyCRuntime/easyCRuntimeLib.lib(stm32f10x_tim.o)
 .text.TIM_PrescalerConfig
                0x00000000        0x0 cortex/vexlib/easyCRuntime/easyCRuntimeLib.lib(stm32f10x_tim.o)
 .text.TIM_CounterModeConfig
                0x00000000        0x0 cortex/vexlib/easyCRuntime/easyCRuntimeLib.lib(stm32f10x_tim.o)
 .text.TIM_SelectInputTrigger
                0x00000000        0x0 cortex/vexlib/easyCRuntime/easyCRuntimeLib.lib(stm32f10x_tim.o)
 .text.TIM_EncoderInterfaceConfig
                0x00000000        0x0 cortex/vexlib/easyCRuntime/easyCRuntimeLib.lib(stm32f10x_tim.o)
 .text.TIM_ForcedOC1Config
                0x00000000        0x0 cortex/vexlib/easyCRuntime/easyCRuntimeLib.lib(stm32f10x_tim.o)
 .text.TIM_ForcedOC2Config
                0x00000000        0x0 cortex/vexlib/easyCRuntime/easyCRuntimeLib.lib(stm32f10x_tim.o)
 .text.TIM_ForcedOC3Config
                0x00000000        0x0 cortex/vexlib/easyCRuntime/easyCRuntimeLib.lib(stm32f10x_tim.o)
 .text.TIM_ForcedOC4Config
                0x00000000        0x0 cortex/vexlib/easyCRuntime/easyCRuntimeLib.lib(stm32f10x_tim.o)
 .text.TIM_SelectCOM
                0x00000000        0x0 cortex/vexlib/easyCRuntime/easyCRuntimeLib.lib(stm32f10x_tim.o)
 .text.TIM_SelectCCDMA
                0x00000000        0x0 cortex/vexlib/easyCRuntime/easyCRuntimeLib.lib(stm32f10x_tim.o)
 .text.TIM_CCPreloadControl
                0x00000000        0x0 cortex/vexlib/easyCRuntime/easyCRuntimeLib.lib(stm32f10x_tim.o)
 .text.TIM_OC2PreloadConfig
                0x00000000        0x0 cortex/vexlib/easyCRuntime/easyCRuntimeLib.lib(stm32f10x_tim.o)
 .text.TIM_OC3PreloadConfig
                0x00000000        0x0 cortex/vexlib/easyCRuntime/easyCRuntimeLib.lib(stm32f10x_tim.o)
 .text.TIM_OC4PreloadConfig
                0x00000000        0x0 cortex/vexlib/easyCRuntime/easyCRuntimeLib.lib(stm32f10x_tim.o)
 .text.TIM_OC1FastConfig
                0x00000000        0x0 cortex/vexlib/easyCRuntime/easyCRuntimeLib.lib(stm32f10x_tim.o)
 .text.TIM_OC2FastConfig
                0x00000000        0x0 cortex/vexlib/easyCRuntime/easyCRuntimeLib.lib(stm32f10x_tim.o)
 .text.TIM_OC3FastConfig
                0x00000000        0x0 cortex/vexlib/easyCRuntime/easyCRuntimeLib.lib(stm32f10x_tim.o)
 .text.TIM_OC4FastConfig
                0x00000000        0x0 cortex/vexlib/easyCRuntime/easyCRuntimeLib.lib(stm32f10x_tim.o)
 .text.TIM_ClearOC1Ref
                0x00000000        0x0 cortex/vexlib/easyCRuntime/easyCRuntimeLib.lib(stm32f10x_tim.o)
 .text.TIM_ClearOC2Ref
                0x00000000        0x0 cortex/vexlib/easyCRuntime/easyCRuntimeLib.lib(stm32f10x_tim.o)
 .text.TIM_ClearOC3Ref
                0x00000000        0x0 cortex/vexlib/easyCRuntime/easyCRuntimeLib.lib(stm32f10x_tim.o)
 .text.TIM_ClearOC4Ref
                0x00000000        0x0 cortex/vexlib/easyCRuntime/easyCRuntimeLib.lib(stm32f10x_tim.o)
 .text.TIM_OC1PolarityConfig
                0x00000000        0x0 cortex/vexlib/easyCRuntime/easyCRuntimeLib.lib(stm32f10x_tim.o)
 .text.TIM_OC1NPolarityConfig
                0x00000000        0x0 cortex/vexlib/easyCRuntime/easyCRuntimeLib.lib(stm32f10x_tim.o)
 .text.TIM_OC2PolarityConfig
                0x00000000        0x0 cortex/vexlib/easyCRuntime/easyCRuntimeLib.lib(stm32f10x_tim.o)
 .text.TIM_OC2NPolarityConfig
                0x00000000        0x0 cortex/vexlib/easyCRuntime/easyCRuntimeLib.lib(stm32f10x_tim.o)
 .text.TIM_OC3PolarityConfig
                0x00000000        0x0 cortex/vexlib/easyCRuntime/easyCRuntimeLib.lib(stm32f10x_tim.o)
 .text.TIM_OC3NPolarityConfig
                0x00000000        0x0 cortex/vexlib/easyCRuntime/easyCRuntimeLib.lib(stm32f10x_tim.o)
 .text.TIM_OC4PolarityConfig
                0x00000000        0x0 cortex/vexlib/easyCRuntime/easyCRuntimeLib.lib(stm32f10x_tim.o)
 .text.TIM_CCxCmd
                0x00000000        0x0 cortex/vexlib/easyCRuntime/easyCRuntimeLib.lib(stm32f10x_tim.o)
 .text.TIM_CCxNCmd
                0x00000000        0x0 cortex/vexlib/easyCRuntime/easyCRuntimeLib.lib(stm32f10x_tim.o)
 .text.TIM_SelectOCxM
                0x00000000        0x0 cortex/vexlib/easyCRuntime/easyCRuntimeLib.lib(stm32f10x_tim.o)
 .text.TIM_UpdateDisableConfig
                0x00000000        0x0 cortex/vexlib/easyCRuntime/easyCRuntimeLib.lib(stm32f10x_tim.o)
 .text.TIM_UpdateRequestConfig
                0x00000000        0x0 cortex/vexlib/easyCRuntime/easyCRuntimeLib.lib(stm32f10x_tim.o)
 .text.TIM_SelectHallSensor
                0x00000000        0x0 cortex/vexlib/easyCRuntime/easyCRuntimeLib.lib(stm32f10x_tim.o)
 .text.TIM_SelectOnePulseMode
                0x00000000        0x0 cortex/vexlib/easyCRuntime/easyCRuntimeLib.lib(stm32f10x_tim.o)
 .text.TIM_SelectOutputTrigger
                0x00000000        0x0 cortex/vexlib/easyCRuntime/easyCRuntimeLib.lib(stm32f10x_tim.o)
 .text.TIM_SelectSlaveMode
                0x00000000        0x0 cortex/vexlib/easyCRuntime/easyCRuntimeLib.lib(stm32f10x_tim.o)
 .text.TIM_SelectMasterSlaveMode
                0x00000000        0x0 cortex/vexlib/easyCRuntime/easyCRuntimeLib.lib(stm32f10x_tim.o)
 .text.TIM_SetCounter
                0x00000000        0x0 cortex/vexlib/easyCRuntime/easyCRuntimeLib.lib(stm32f10x_tim.o)
 .text.TIM_SetAutoreload
                0x00000000        0x0 cortex/vexlib/easyCRuntime/easyCRuntimeLib.lib(stm32f10x_tim.o)
 .text.TIM_SetCompare1
                0x00000000        0x0 cortex/vexlib/easyCRuntime/easyCRuntimeLib.lib(stm32f10x_tim.o)
 .text.TIM_SetCompare2
                0x00000000        0x0 cortex/vexlib/easyCRuntime/easyCRuntimeLib.lib(stm32f10x_tim.o)
 .text.TIM_SetCompare3
                0x00000000        0x0 cortex/vexlib/easyCRuntime/easyCRuntimeLib.lib(stm32f10x_tim.o)
 .text.TIM_SetCompare4
                0x00000000        0x0 cortex/vexlib/easyCRuntime/easyCRuntimeLib.lib(stm32f10x_tim.o)
 .text.TIM_SetIC1Prescaler
                0x00000000        0x0 cortex/vexlib/easyCRuntime/easyCRuntimeLib.lib(stm32f10x_tim.o)
 .text.TIM_SetIC2Prescaler
                0x00000000        0x0 cortex/vexlib/easyCRuntime/easyCRuntimeLib.lib(stm32f10x_tim.o)
 .text.TIM_SetIC3Prescaler
                0x00000000        0x0 cortex/vexlib/easyCRuntime/easyCRuntimeLib.lib(stm32f10x_tim.o)
 .text.TIM_SetIC4Prescaler
                0x00000000        0x0 cortex/vexlib/easyCRuntime/easyCRuntimeLib.lib(stm32f10x_tim.o)
 .text.TIM_SetClockDivision
                0x00000000        0x0 cortex/vexlib/easyCRuntime/easyCRuntimeLib.lib(stm32f10x_tim.o)
 .text.TIM_GetCapture1
                0x00000000        0x0 cortex/vexlib/easyCRuntime/easyCRuntimeLib.lib(stm32f10x_tim.o)
 .text.TIM_GetCapture2
                0x00000000        0x0 cortex/vexlib/easyCRuntime/easyCRuntimeLib.lib(stm32f10x_tim.o)
 .text.TIM_GetCapture4
                0x00000000        0x0 cortex/vexlib/easyCRuntime/easyCRuntimeLib.lib(stm32f10x_tim.o)
 .text.TIM_GetCounter
                0x00000000        0x0 cortex/vexlib/easyCRuntime/easyCRuntimeLib.lib(stm32f10x_tim.o)
 .text.TIM_GetPrescaler
                0x00000000        0x0 cortex/vexlib/easyCRuntime/easyCRuntimeLib.lib(stm32f10x_tim.o)
 .text.TIM_GetFlagStatus
                0x00000000        0x0 cortex/vexlib/easyCRuntime/easyCRuntimeLib.lib(stm32f10x_tim.o)
 .text.TIM_ClearFlag
                0x00000000        0x0 cortex/vexlib/easyCRuntime/easyCRuntimeLib.lib(stm32f10x_tim.o)
 .text.TI1_Config
                0x00000000        0x0 cortex/vexlib/easyCRuntime/easyCRuntimeLib.lib(stm32f10x_tim.o)
 .text.TI2_Config
                0x00000000        0x0 cortex/vexlib/easyCRuntime/easyCRuntimeLib.lib(stm32f10x_tim.o)
 .text.TI3_Config
                0x00000000        0x0 cortex/vexlib/easyCRuntime/easyCRuntimeLib.lib(stm32f10x_tim.o)
 .text.TI4_Config
                0x00000000        0x0 cortex/vexlib/easyCRuntime/easyCRuntimeLib.lib(stm32f10x_tim.o)
 .text          0x00000000        0x0 cortex/vexlib/easyCRuntime/easyCRuntimeLib.lib(stm32f10x_usart.o)
 .data          0x00000000        0x0 cortex/vexlib/easyCRuntime/easyCRuntimeLib.lib(stm32f10x_usart.o)
 .bss           0x00000000        0x0 cortex/vexlib/easyCRuntime/easyCRuntimeLib.lib(stm32f10x_usart.o)
 .text.USART_DeInit
                0x00000000        0x0 cortex/vexlib/easyCRuntime/easyCRuntimeLib.lib(stm32f10x_usart.o)
 .text.USART_StructInit
                0x00000000        0x0 cortex/vexlib/easyCRuntime/easyCRuntimeLib.lib(stm32f10x_usart.o)
 .text.USART_ClockInit
                0x00000000        0x0 cortex/vexlib/easyCRuntime/easyCRuntimeLib.lib(stm32f10x_usart.o)
 .text.USART_ClockStructInit
                0x00000000        0x0 cortex/vexlib/easyCRuntime/easyCRuntimeLib.lib(stm32f10x_usart.o)
 .text.USART_DMACmd
                0x00000000        0x0 cortex/vexlib/easyCRuntime/easyCRuntimeLib.lib(stm32f10x_usart.o)
 .text.USART_SetAddress
                0x00000000        0x0 cortex/vexlib/easyCRuntime/easyCRuntimeLib.lib(stm32f10x_usart.o)
 .text.USART_WakeUpConfig
                0x00000000        0x0 cortex/vexlib/easyCRuntime/easyCRuntimeLib.lib(stm32f10x_usart.o)
 .text.USART_ReceiverWakeUpCmd
                0x00000000        0x0 cortex/vexlib/easyCRuntime/easyCRuntimeLib.lib(stm32f10x_usart.o)
 .text.USART_LINBreakDetectLengthConfig
                0x00000000        0x0 cortex/vexlib/easyCRuntime/easyCRuntimeLib.lib(stm32f10x_usart.o)
 .text.USART_LINCmd
                0x00000000        0x0 cortex/vexlib/easyCRuntime/easyCRuntimeLib.lib(stm32f10x_usart.o)
 .text.USART_SendBreak
                0x00000000        0x0 cortex/vexlib/easyCRuntime/easyCRuntimeLib.lib(stm32f10x_usart.o)
 .text.USART_SetGuardTime
                0x00000000        0x0 cortex/vexlib/easyCRuntime/easyCRuntimeLib.lib(stm32f10x_usart.o)
 .text.USART_SetPrescaler
                0x00000000        0x0 cortex/vexlib/easyCRuntime/easyCRuntimeLib.lib(stm32f10x_usart.o)
 .text.USART_SmartCardCmd
                0x00000000        0x0 cortex/vexlib/easyCRuntime/easyCRuntimeLib.lib(stm32f10x_usart.o)
 .text.USART_SmartCardNACKCmd
                0x00000000        0x0 cortex/vexlib/easyCRuntime/easyCRuntimeLib.lib(stm32f10x_usart.o)
 .text.USART_HalfDuplexCmd
                0x00000000        0x0 cortex/vexlib/easyCRuntime/easyCRuntimeLib.lib(stm32f10x_usart.o)
 .text.USART_IrDAConfig
                0x00000000        0x0 cortex/vexlib/easyCRuntime/easyCRuntimeLib.lib(stm32f10x_usart.o)
 .text.USART_IrDACmd
                0x00000000        0x0 cortex/vexlib/easyCRuntime/easyCRuntimeLib.lib(stm32f10x_usart.o)
 .text.USART_ClearFlag
                0x00000000        0x0 cortex/vexlib/easyCRuntime/easyCRuntimeLib.lib(stm32f10x_usart.o)
 .text.USART_GetITStatus
                0x00000000        0x0 cortex/vexlib/easyCRuntime/easyCRuntimeLib.lib(stm32f10x_usart.o)
 .text.USART_ClearITPendingBit
                0x00000000        0x0 cortex/vexlib/easyCRuntime/easyCRuntimeLib.lib(stm32f10x_usart.o)
 .text          0x00000000        0x0 cortex/vexlib/easyCRuntime/easyCRuntimeLib.lib(cortexm3_macro.o)
 .data          0x00000000        0x0 cortex/vexlib/easyCRuntime/easyCRuntimeLib.lib(cortexm3_macro.o)
 .bss           0x00000000        0x0 cortex/vexlib/easyCRuntime/easyCRuntimeLib.lib(cortexm3_macro.o)
 .text          0x00000000        0x0 cortex/vexlib/Link/STM32x_io_putchar_thumb.a(syscalls.o)
 .data          0x00000000        0x0 cortex/vexlib/Link/STM32x_io_putchar_thumb.a(syscalls.o)
 .bss           0x00000000        0x0 cortex/vexlib/Link/STM32x_io_putchar_thumb.a(syscalls.o)
 .text._read    0x00000000        0x0 cortex/vexlib/Link/STM32x_io_putchar_thumb.a(syscalls.o)
 .text._lseek   0x00000000        0x0 cortex/vexlib/Link/STM32x_io_putchar_thumb.a(syscalls.o)
 .text._open    0x00000000        0x0 cortex/vexlib/Link/STM32x_io_putchar_thumb.a(syscalls.o)
 .text._close   0x00000000        0x0 cortex/vexlib/Link/STM32x_io_putchar_thumb.a(syscalls.o)
 .text._exit    0x00000000        0x0 cortex/vexlib/Link/STM32x_io_putchar_thumb.a(syscalls.o)
 .text._kill    0x00000000        0x0 cortex/vexlib/Link/STM32x_io_putchar_thumb.a(syscalls.o)
 .text._fstat   0x00000000        0x0 cortex/vexlib/Link/STM32x_io_putchar_thumb.a(syscalls.o)
 .text._stat    0x00000000        0x0 cortex/vexlib/Link/STM32x_io_putchar_thumb.a(syscalls.o)
 .text._link    0x00000000        0x0 cortex/vexlib/Link/STM32x_io_putchar_thumb.a(syscalls.o)
 .text._unlink  0x00000000        0x0 cortex/vexlib/Link/STM32x_io_putchar_thumb.a(syscalls.o)
 .text._raise   0x00000000        0x0 cortex/vexlib/Link/STM32x_io_putchar_thumb.a(syscalls.o)
 .text._getpid  0x00000000        0x0 cortex/vexlib/Link/STM32x_io_putchar_thumb.a(syscalls.o)
 .text._gettimeofday
                0x00000000        0x0 cortex/vexlib/Link/STM32x_io_putchar_thumb.a(syscalls.o)
 .text._times   0x00000000        0x0 cortex/vexlib/Link/STM32x_io_putchar_thumb.a(syscalls.o)
 .text.isatty   0x00000000        0x0 cortex/vexlib/Link/STM32x_io_putchar_thumb.a(syscalls.o)
 .text._isatty  0x00000000        0x0 cortex/vexlib/Link/STM32x_io_putchar_thumb.a(syscalls.o)
 .text._rename  0x00000000        0x0 cortex/vexlib/Link/STM32x_io_putchar_thumb.a(syscalls.o)
 .text._system  0x00000000        0x0 cortex/vexlib/Link/STM32x_io_putchar_thumb.a(syscalls.o)
 .text._sbrk    0x00000000        0x0 cortex/vexlib/Link/STM32x_io_putchar_thumb.a(syscalls.o)
 .rodata.str1.4
                0x00000000        0x0 cortex/vexlib/Link/STM32x_io_putchar_thumb.a(syscalls.o)
 .text          0x00000000        0x0 cortex/vexlib/Link/e_stdio_thumb.a(_sp_printf.o)
 .data          0x00000000        0x0 cortex/vexlib/Link/e_stdio_thumb.a(_sp_printf.o)
 .bss           0x00000000        0x0 cortex/vexlib/Link/e_stdio_thumb.a(_sp_printf.o)
 .data          0x00000000        0x0 cortex/vexlib/Link/e_stdio_thumb.a(_sp_vfprintf.o)
 .bss           0x00000000        0x0 cortex/vexlib/Link/e_stdio_thumb.a(_sp_vfprintf.o)
 .data          0x00000000        0x0 cortex/vexlib/Link/e_stdio_thumb.a(_sp_puts.o)
 .bss           0x00000000        0x0 cortex/vexlib/Link/e_stdio_thumb.a(_sp_puts.o)
 .data          0x00000000        0x0 cortex/vexlib/Link/e_stdio_thumb.a(_sp_sprintf.o)
 .bss           0x00000000        0x0 cortex/vexlib/Link/e_stdio_thumb.a(_sp_sprintf.o)
 .data          0x00000000        0x0 cortex/vexlib/Link/e_stdio_thumb.a(small_dtoa.o)
 .bss           0x00000000        0x0 cortex/vexlib/Link/e_stdio_thumb.a(small_dtoa.o)
 .data          0x00000000        0x0 cortex/vexlib/Link/e_stdio_thumb.a(small_wcsrtombs.o)
 .bss           0x00000000        0x0 cortex/vexlib/Link/e_stdio_thumb.a(small_wcsrtombs.o)
 .data          0x00000000        0x0 cortex/vexlib/Link/e_stdio_thumb.a(small_wcrtomb.o)
 .bss           0x00000000        0x0 cortex/vexlib/Link/e_stdio_thumb.a(small_wcrtomb.o)
 .data          0x00000000        0x0 cortex/vexlib/Link/e_stdio_thumb.a(small_mprec.o)
 .bss           0x00000000        0x0 cortex/vexlib/Link/e_stdio_thumb.a(small_mprec.o)
 .text          0x00000000        0x0 c:/easyc/#tools/arm-gcc/bin/../lib/gcc/arm-none-eabi/4.3.2/../../../../arm-none-eabi/lib/thumb2/libc.a(lib_a-abort.o)
 .data          0x00000000        0x0 c:/easyc/#tools/arm-gcc/bin/../lib/gcc/arm-none-eabi/4.3.2/../../../../arm-none-eabi/lib/thumb2/libc.a(lib_a-abort.o)
 .bss           0x00000000        0x0 c:/easyc/#tools/arm-gcc/bin/../lib/gcc/arm-none-eabi/4.3.2/../../../../arm-none-eabi/lib/thumb2/libc.a(lib_a-abort.o)
 .debug_frame   0x00000000        0x0 c:/easyc/#tools/arm-gcc/bin/../lib/gcc/arm-none-eabi/4.3.2/../../../../arm-none-eabi/lib/thumb2/libc.a(lib_a-abort.o)
 .ARM.attributes
                0x00000000        0x0 c:/easyc/#tools/arm-gcc/bin/../lib/gcc/arm-none-eabi/4.3.2/../../../../arm-none-eabi/lib/thumb2/libc.a(lib_a-abort.o)
 .vfp11_veneer  0x00000000        0x0 c:/easyc/#tools/arm-gcc/bin/../lib/gcc/arm-none-eabi/4.3.2/../../../../arm-none-eabi/lib/thumb2/libc.a(lib_a-abort.o)
 .janus_2cc_veneer
                0x00000000        0x0 c:/easyc/#tools/arm-gcc/bin/../lib/gcc/arm-none-eabi/4.3.2/../../../../arm-none-eabi/lib/thumb2/libc.a(lib_a-abort.o)
 .v4_bx         0x00000000        0x0 c:/easyc/#tools/arm-gcc/bin/../lib/gcc/arm-none-eabi/4.3.2/../../../../arm-none-eabi/lib/thumb2/libc.a(lib_a-abort.o)
 .text          0x00000000        0x0 c:/easyc/#tools/arm-gcc/bin/../lib/gcc/arm-none-eabi/4.3.2/../../../../arm-none-eabi/lib/thumb2/libc.a(lib_a-errno.o)
 .data          0x00000000        0x0 c:/easyc/#tools/arm-gcc/bin/../lib/gcc/arm-none-eabi/4.3.2/../../../../arm-none-eabi/lib/thumb2/libc.a(lib_a-errno.o)
 .bss           0x00000000        0x0 c:/easyc/#tools/arm-gcc/bin/../lib/gcc/arm-none-eabi/4.3.2/../../../../arm-none-eabi/lib/thumb2/libc.a(lib_a-errno.o)
 .debug_frame   0x00000000        0x0 c:/easyc/#tools/arm-gcc/bin/../lib/gcc/arm-none-eabi/4.3.2/../../../../arm-none-eabi/lib/thumb2/libc.a(lib_a-errno.o)
 .ARM.attributes
                0x00000000        0x0 c:/easyc/#tools/arm-gcc/bin/../lib/gcc/arm-none-eabi/4.3.2/../../../../arm-none-eabi/lib/thumb2/libc.a(lib_a-errno.o)
 .vfp11_veneer  0x00000000        0x0 c:/easyc/#tools/arm-gcc/bin/../lib/gcc/arm-none-eabi/4.3.2/../../../../arm-none-eabi/lib/thumb2/libc.a(lib_a-errno.o)
 .janus_2cc_veneer
                0x00000000        0x0 c:/easyc/#tools/arm-gcc/bin/../lib/gcc/arm-none-eabi/4.3.2/../../../../arm-none-eabi/lib/thumb2/libc.a(lib_a-errno.o)
 .v4_bx         0x00000000        0x0 c:/easyc/#tools/arm-gcc/bin/../lib/gcc/arm-none-eabi/4.3.2/../../../../arm-none-eabi/lib/thumb2/libc.a(lib_a-errno.o)
 .text          0x00000000        0x0 c:/easyc/#tools/arm-gcc/bin/../lib/gcc/arm-none-eabi/4.3.2/../../../../arm-none-eabi/lib/thumb2/libc.a(lib_a-impure.o)
 .bss           0x00000000        0x0 c:/easyc/#tools/arm-gcc/bin/../lib/gcc/arm-none-eabi/4.3.2/../../../../arm-none-eabi/lib/thumb2/libc.a(lib_a-impure.o)
 .rodata        0x00000000        0x0 c:/easyc/#tools/arm-gcc/bin/../lib/gcc/arm-none-eabi/4.3.2/../../../../arm-none-eabi/lib/thumb2/libc.a(lib_a-impure.o)
 .ARM.attributes
                0x00000000        0x0 c:/easyc/#tools/arm-gcc/bin/../lib/gcc/arm-none-eabi/4.3.2/../../../../arm-none-eabi/lib/thumb2/libc.a(lib_a-impure.o)
 .vfp11_veneer  0x00000000        0x0 c:/easyc/#tools/arm-gcc/bin/../lib/gcc/arm-none-eabi/4.3.2/../../../../arm-none-eabi/lib/thumb2/libc.a(lib_a-impure.o)
 .janus_2cc_veneer
                0x00000000        0x0 c:/easyc/#tools/arm-gcc/bin/../lib/gcc/arm-none-eabi/4.3.2/../../../../arm-none-eabi/lib/thumb2/libc.a(lib_a-impure.o)
 .v4_bx         0x00000000        0x0 c:/easyc/#tools/arm-gcc/bin/../lib/gcc/arm-none-eabi/4.3.2/../../../../arm-none-eabi/lib/thumb2/libc.a(lib_a-impure.o)
 .data          0x00000000        0x0 c:/easyc/#tools/arm-gcc/bin/../lib/gcc/arm-none-eabi/4.3.2/../../../../arm-none-eabi/lib/thumb2/libc.a(lib_a-memchr.o)
 .bss           0x00000000        0x0 c:/easyc/#tools/arm-gcc/bin/../lib/gcc/arm-none-eabi/4.3.2/../../../../arm-none-eabi/lib/thumb2/libc.a(lib_a-memchr.o)
 .debug_frame   0x00000000        0x0 c:/easyc/#tools/arm-gcc/bin/../lib/gcc/arm-none-eabi/4.3.2/../../../../arm-none-eabi/lib/thumb2/libc.a(lib_a-memchr.o)
 .ARM.attributes
                0x00000000        0x0 c:/easyc/#tools/arm-gcc/bin/../lib/gcc/arm-none-eabi/4.3.2/../../../../arm-none-eabi/lib/thumb2/libc.a(lib_a-memchr.o)
 .vfp11_veneer  0x00000000        0x0 c:/easyc/#tools/arm-gcc/bin/../lib/gcc/arm-none-eabi/4.3.2/../../../../arm-none-eabi/lib/thumb2/libc.a(lib_a-memchr.o)
 .janus_2cc_veneer
                0x00000000        0x0 c:/easyc/#tools/arm-gcc/bin/../lib/gcc/arm-none-eabi/4.3.2/../../../../arm-none-eabi/lib/thumb2/libc.a(lib_a-memchr.o)
 .v4_bx         0x00000000        0x0 c:/easyc/#tools/arm-gcc/bin/../lib/gcc/arm-none-eabi/4.3.2/../../../../arm-none-eabi/lib/thumb2/libc.a(lib_a-memchr.o)
 .data          0x00000000        0x0 c:/easyc/#tools/arm-gcc/bin/../lib/gcc/arm-none-eabi/4.3.2/../../../../arm-none-eabi/lib/thumb2/libc.a(lib_a-memcpy.o)
 .bss           0x00000000        0x0 c:/easyc/#tools/arm-gcc/bin/../lib/gcc/arm-none-eabi/4.3.2/../../../../arm-none-eabi/lib/thumb2/libc.a(lib_a-memcpy.o)
 .debug_frame   0x00000000        0x0 c:/easyc/#tools/arm-gcc/bin/../lib/gcc/arm-none-eabi/4.3.2/../../../../arm-none-eabi/lib/thumb2/libc.a(lib_a-memcpy.o)
 .ARM.attributes
                0x00000000        0x0 c:/easyc/#tools/arm-gcc/bin/../lib/gcc/arm-none-eabi/4.3.2/../../../../arm-none-eabi/lib/thumb2/libc.a(lib_a-memcpy.o)
 .vfp11_veneer  0x00000000        0x0 c:/easyc/#tools/arm-gcc/bin/../lib/gcc/arm-none-eabi/4.3.2/../../../../arm-none-eabi/lib/thumb2/libc.a(lib_a-memcpy.o)
 .janus_2cc_veneer
                0x00000000        0x0 c:/easyc/#tools/arm-gcc/bin/../lib/gcc/arm-none-eabi/4.3.2/../../../../arm-none-eabi/lib/thumb2/libc.a(lib_a-memcpy.o)
 .v4_bx         0x00000000        0x0 c:/easyc/#tools/arm-gcc/bin/../lib/gcc/arm-none-eabi/4.3.2/../../../../arm-none-eabi/lib/thumb2/libc.a(lib_a-memcpy.o)
 .data          0x00000000        0x0 c:/easyc/#tools/arm-gcc/bin/../lib/gcc/arm-none-eabi/4.3.2/../../../../arm-none-eabi/lib/thumb2/libc.a(lib_a-memset.o)
 .bss           0x00000000        0x0 c:/easyc/#tools/arm-gcc/bin/../lib/gcc/arm-none-eabi/4.3.2/../../../../arm-none-eabi/lib/thumb2/libc.a(lib_a-memset.o)
 .debug_frame   0x00000000        0x0 c:/easyc/#tools/arm-gcc/bin/../lib/gcc/arm-none-eabi/4.3.2/../../../../arm-none-eabi/lib/thumb2/libc.a(lib_a-memset.o)
 .ARM.attributes
                0x00000000        0x0 c:/easyc/#tools/arm-gcc/bin/../lib/gcc/arm-none-eabi/4.3.2/../../../../arm-none-eabi/lib/thumb2/libc.a(lib_a-memset.o)
 .vfp11_veneer  0x00000000        0x0 c:/easyc/#tools/arm-gcc/bin/../lib/gcc/arm-none-eabi/4.3.2/../../../../arm-none-eabi/lib/thumb2/libc.a(lib_a-memset.o)
 .janus_2cc_veneer
                0x00000000        0x0 c:/easyc/#tools/arm-gcc/bin/../lib/gcc/arm-none-eabi/4.3.2/../../../../arm-none-eabi/lib/thumb2/libc.a(lib_a-memset.o)
 .v4_bx         0x00000000        0x0 c:/easyc/#tools/arm-gcc/bin/../lib/gcc/arm-none-eabi/4.3.2/../../../../arm-none-eabi/lib/thumb2/libc.a(lib_a-memset.o)
 .text          0x00000000        0x0 c:/easyc/#tools/arm-gcc/bin/../lib/gcc/arm-none-eabi/4.3.2/../../../../arm-none-eabi/lib/thumb2/libc.a(lib_a-rand.o)
 .data          0x00000000        0x0 c:/easyc/#tools/arm-gcc/bin/../lib/gcc/arm-none-eabi/4.3.2/../../../../arm-none-eabi/lib/thumb2/libc.a(lib_a-rand.o)
 .bss           0x00000000        0x0 c:/easyc/#tools/arm-gcc/bin/../lib/gcc/arm-none-eabi/4.3.2/../../../../arm-none-eabi/lib/thumb2/libc.a(lib_a-rand.o)
 .debug_frame   0x00000000        0x0 c:/easyc/#tools/arm-gcc/bin/../lib/gcc/arm-none-eabi/4.3.2/../../../../arm-none-eabi/lib/thumb2/libc.a(lib_a-rand.o)
 .ARM.attributes
                0x00000000        0x0 c:/easyc/#tools/arm-gcc/bin/../lib/gcc/arm-none-eabi/4.3.2/../../../../arm-none-eabi/lib/thumb2/libc.a(lib_a-rand.o)
 .vfp11_veneer  0x00000000        0x0 c:/easyc/#tools/arm-gcc/bin/../lib/gcc/arm-none-eabi/4.3.2/../../../../arm-none-eabi/lib/thumb2/libc.a(lib_a-rand.o)
 .janus_2cc_veneer
                0x00000000        0x0 c:/easyc/#tools/arm-gcc/bin/../lib/gcc/arm-none-eabi/4.3.2/../../../../arm-none-eabi/lib/thumb2/libc.a(lib_a-rand.o)
 .v4_bx         0x00000000        0x0 c:/easyc/#tools/arm-gcc/bin/../lib/gcc/arm-none-eabi/4.3.2/../../../../arm-none-eabi/lib/thumb2/libc.a(lib_a-rand.o)
 .data          0x00000000        0x0 c:/easyc/#tools/arm-gcc/bin/../lib/gcc/arm-none-eabi/4.3.2/../../../../arm-none-eabi/lib/thumb2/libc.a(lib_a-s_isinfd.o)
 .bss           0x00000000        0x0 c:/easyc/#tools/arm-gcc/bin/../lib/gcc/arm-none-eabi/4.3.2/../../../../arm-none-eabi/lib/thumb2/libc.a(lib_a-s_isinfd.o)
 .debug_frame   0x00000000        0x0 c:/easyc/#tools/arm-gcc/bin/../lib/gcc/arm-none-eabi/4.3.2/../../../../arm-none-eabi/lib/thumb2/libc.a(lib_a-s_isinfd.o)
 .ARM.attributes
                0x00000000        0x0 c:/easyc/#tools/arm-gcc/bin/../lib/gcc/arm-none-eabi/4.3.2/../../../../arm-none-eabi/lib/thumb2/libc.a(lib_a-s_isinfd.o)
 .vfp11_veneer  0x00000000        0x0 c:/easyc/#tools/arm-gcc/bin/../lib/gcc/arm-none-eabi/4.3.2/../../../../arm-none-eabi/lib/thumb2/libc.a(lib_a-s_isinfd.o)
 .janus_2cc_veneer
                0x00000000        0x0 c:/easyc/#tools/arm-gcc/bin/../lib/gcc/arm-none-eabi/4.3.2/../../../../arm-none-eabi/lib/thumb2/libc.a(lib_a-s_isinfd.o)
 .v4_bx         0x00000000        0x0 c:/easyc/#tools/arm-gcc/bin/../lib/gcc/arm-none-eabi/4.3.2/../../../../arm-none-eabi/lib/thumb2/libc.a(lib_a-s_isinfd.o)
 .data          0x00000000        0x0 c:/easyc/#tools/arm-gcc/bin/../lib/gcc/arm-none-eabi/4.3.2/../../../../arm-none-eabi/lib/thumb2/libc.a(lib_a-s_isnand.o)
 .bss           0x00000000        0x0 c:/easyc/#tools/arm-gcc/bin/../lib/gcc/arm-none-eabi/4.3.2/../../../../arm-none-eabi/lib/thumb2/libc.a(lib_a-s_isnand.o)
 .debug_frame   0x00000000        0x0 c:/easyc/#tools/arm-gcc/bin/../lib/gcc/arm-none-eabi/4.3.2/../../../../arm-none-eabi/lib/thumb2/libc.a(lib_a-s_isnand.o)
 .ARM.attributes
                0x00000000        0x0 c:/easyc/#tools/arm-gcc/bin/../lib/gcc/arm-none-eabi/4.3.2/../../../../arm-none-eabi/lib/thumb2/libc.a(lib_a-s_isnand.o)
 .vfp11_veneer  0x00000000        0x0 c:/easyc/#tools/arm-gcc/bin/../lib/gcc/arm-none-eabi/4.3.2/../../../../arm-none-eabi/lib/thumb2/libc.a(lib_a-s_isnand.o)
 .janus_2cc_veneer
                0x00000000        0x0 c:/easyc/#tools/arm-gcc/bin/../lib/gcc/arm-none-eabi/4.3.2/../../../../arm-none-eabi/lib/thumb2/libc.a(lib_a-s_isnand.o)
 .v4_bx         0x00000000        0x0 c:/easyc/#tools/arm-gcc/bin/../lib/gcc/arm-none-eabi/4.3.2/../../../../arm-none-eabi/lib/thumb2/libc.a(lib_a-s_isnand.o)
 .text          0x00000000        0x0 c:/easyc/#tools/arm-gcc/bin/../lib/gcc/arm-none-eabi/4.3.2/../../../../arm-none-eabi/lib/thumb2/libc.a(lib_a-signal.o)
 .data          0x00000000        0x0 c:/easyc/#tools/arm-gcc/bin/../lib/gcc/arm-none-eabi/4.3.2/../../../../arm-none-eabi/lib/thumb2/libc.a(lib_a-signal.o)
 .bss           0x00000000        0x0 c:/easyc/#tools/arm-gcc/bin/../lib/gcc/arm-none-eabi/4.3.2/../../../../arm-none-eabi/lib/thumb2/libc.a(lib_a-signal.o)
 .debug_frame   0x00000000        0x0 c:/easyc/#tools/arm-gcc/bin/../lib/gcc/arm-none-eabi/4.3.2/../../../../arm-none-eabi/lib/thumb2/libc.a(lib_a-signal.o)
 .ARM.attributes
                0x00000000        0x0 c:/easyc/#tools/arm-gcc/bin/../lib/gcc/arm-none-eabi/4.3.2/../../../../arm-none-eabi/lib/thumb2/libc.a(lib_a-signal.o)
 .vfp11_veneer  0x00000000        0x0 c:/easyc/#tools/arm-gcc/bin/../lib/gcc/arm-none-eabi/4.3.2/../../../../arm-none-eabi/lib/thumb2/libc.a(lib_a-signal.o)
 .janus_2cc_veneer
                0x00000000        0x0 c:/easyc/#tools/arm-gcc/bin/../lib/gcc/arm-none-eabi/4.3.2/../../../../arm-none-eabi/lib/thumb2/libc.a(lib_a-signal.o)
 .v4_bx         0x00000000        0x0 c:/easyc/#tools/arm-gcc/bin/../lib/gcc/arm-none-eabi/4.3.2/../../../../arm-none-eabi/lib/thumb2/libc.a(lib_a-signal.o)
 .text          0x00000000        0x0 c:/easyc/#tools/arm-gcc/bin/../lib/gcc/arm-none-eabi/4.3.2/../../../../arm-none-eabi/lib/thumb2/libc.a(lib_a-signalr.o)
 .data          0x00000000        0x0 c:/easyc/#tools/arm-gcc/bin/../lib/gcc/arm-none-eabi/4.3.2/../../../../arm-none-eabi/lib/thumb2/libc.a(lib_a-signalr.o)
 .bss           0x00000000        0x0 c:/easyc/#tools/arm-gcc/bin/../lib/gcc/arm-none-eabi/4.3.2/../../../../arm-none-eabi/lib/thumb2/libc.a(lib_a-signalr.o)
 .debug_frame   0x00000000        0x0 c:/easyc/#tools/arm-gcc/bin/../lib/gcc/arm-none-eabi/4.3.2/../../../../arm-none-eabi/lib/thumb2/libc.a(lib_a-signalr.o)
 .ARM.attributes
                0x00000000        0x0 c:/easyc/#tools/arm-gcc/bin/../lib/gcc/arm-none-eabi/4.3.2/../../../../arm-none-eabi/lib/thumb2/libc.a(lib_a-signalr.o)
 .vfp11_veneer  0x00000000        0x0 c:/easyc/#tools/arm-gcc/bin/../lib/gcc/arm-none-eabi/4.3.2/../../../../arm-none-eabi/lib/thumb2/libc.a(lib_a-signalr.o)
 .janus_2cc_veneer
                0x00000000        0x0 c:/easyc/#tools/arm-gcc/bin/../lib/gcc/arm-none-eabi/4.3.2/../../../../arm-none-eabi/lib/thumb2/libc.a(lib_a-signalr.o)
 .v4_bx         0x00000000        0x0 c:/easyc/#tools/arm-gcc/bin/../lib/gcc/arm-none-eabi/4.3.2/../../../../arm-none-eabi/lib/thumb2/libc.a(lib_a-signalr.o)
 .data          0x00000000        0x0 c:/easyc/#tools/arm-gcc/bin/../lib/gcc/arm-none-eabi/4.3.2/../../../../arm-none-eabi/lib/thumb2/libc.a(lib_a-strlen.o)
 .bss           0x00000000        0x0 c:/easyc/#tools/arm-gcc/bin/../lib/gcc/arm-none-eabi/4.3.2/../../../../arm-none-eabi/lib/thumb2/libc.a(lib_a-strlen.o)
 .debug_frame   0x00000000        0x0 c:/easyc/#tools/arm-gcc/bin/../lib/gcc/arm-none-eabi/4.3.2/../../../../arm-none-eabi/lib/thumb2/libc.a(lib_a-strlen.o)
 .ARM.attributes
                0x00000000        0x0 c:/easyc/#tools/arm-gcc/bin/../lib/gcc/arm-none-eabi/4.3.2/../../../../arm-none-eabi/lib/thumb2/libc.a(lib_a-strlen.o)
 .vfp11_veneer  0x00000000        0x0 c:/easyc/#tools/arm-gcc/bin/../lib/gcc/arm-none-eabi/4.3.2/../../../../arm-none-eabi/lib/thumb2/libc.a(lib_a-strlen.o)
 .janus_2cc_veneer
                0x00000000        0x0 c:/easyc/#tools/arm-gcc/bin/../lib/gcc/arm-none-eabi/4.3.2/../../../../arm-none-eabi/lib/thumb2/libc.a(lib_a-strlen.o)
 .v4_bx         0x00000000        0x0 c:/easyc/#tools/arm-gcc/bin/../lib/gcc/arm-none-eabi/4.3.2/../../../../arm-none-eabi/lib/thumb2/libc.a(lib_a-strlen.o)
 .text          0x00000000        0x0 c:/easyc/#tools/arm-gcc/bin/../lib/gcc/arm-none-eabi/4.3.2/../../../../arm-none-eabi/lib/thumb2/libc.a(lib_a-vsprintf.o)
 .data          0x00000000        0x0 c:/easyc/#tools/arm-gcc/bin/../lib/gcc/arm-none-eabi/4.3.2/../../../../arm-none-eabi/lib/thumb2/libc.a(lib_a-vsprintf.o)
 .bss           0x00000000        0x0 c:/easyc/#tools/arm-gcc/bin/../lib/gcc/arm-none-eabi/4.3.2/../../../../arm-none-eabi/lib/thumb2/libc.a(lib_a-vsprintf.o)
 .debug_frame   0x00000000        0x0 c:/easyc/#tools/arm-gcc/bin/../lib/gcc/arm-none-eabi/4.3.2/../../../../arm-none-eabi/lib/thumb2/libc.a(lib_a-vsprintf.o)
 .ARM.attributes
                0x00000000        0x0 c:/easyc/#tools/arm-gcc/bin/../lib/gcc/arm-none-eabi/4.3.2/../../../../arm-none-eabi/lib/thumb2/libc.a(lib_a-vsprintf.o)
 .vfp11_veneer  0x00000000        0x0 c:/easyc/#tools/arm-gcc/bin/../lib/gcc/arm-none-eabi/4.3.2/../../../../arm-none-eabi/lib/thumb2/libc.a(lib_a-vsprintf.o)
 .janus_2cc_veneer
                0x00000000        0x0 c:/easyc/#tools/arm-gcc/bin/../lib/gcc/arm-none-eabi/4.3.2/../../../../arm-none-eabi/lib/thumb2/libc.a(lib_a-vsprintf.o)
 .v4_bx         0x00000000        0x0 c:/easyc/#tools/arm-gcc/bin/../lib/gcc/arm-none-eabi/4.3.2/../../../../arm-none-eabi/lib/thumb2/libc.a(lib_a-vsprintf.o)
 .text          0x00000000        0x0 c:/easyc/#tools/arm-gcc/bin/../lib/gcc/arm-none-eabi/4.3.2/../../../../arm-none-eabi/lib/thumb2/libc.a(lib_a-malloc.o)
 .data          0x00000000        0x0 c:/easyc/#tools/arm-gcc/bin/../lib/gcc/arm-none-eabi/4.3.2/../../../../arm-none-eabi/lib/thumb2/libc.a(lib_a-malloc.o)
 .bss           0x00000000        0x0 c:/easyc/#tools/arm-gcc/bin/../lib/gcc/arm-none-eabi/4.3.2/../../../../arm-none-eabi/lib/thumb2/libc.a(lib_a-malloc.o)
 .debug_frame   0x00000000        0x0 c:/easyc/#tools/arm-gcc/bin/../lib/gcc/arm-none-eabi/4.3.2/../../../../arm-none-eabi/lib/thumb2/libc.a(lib_a-malloc.o)
 .ARM.attributes
                0x00000000        0x0 c:/easyc/#tools/arm-gcc/bin/../lib/gcc/arm-none-eabi/4.3.2/../../../../arm-none-eabi/lib/thumb2/libc.a(lib_a-malloc.o)
 .vfp11_veneer  0x00000000        0x0 c:/easyc/#tools/arm-gcc/bin/../lib/gcc/arm-none-eabi/4.3.2/../../../../arm-none-eabi/lib/thumb2/libc.a(lib_a-malloc.o)
 .janus_2cc_veneer
                0x00000000        0x0 c:/easyc/#tools/arm-gcc/bin/../lib/gcc/arm-none-eabi/4.3.2/../../../../arm-none-eabi/lib/thumb2/libc.a(lib_a-malloc.o)
 .v4_bx         0x00000000        0x0 c:/easyc/#tools/arm-gcc/bin/../lib/gcc/arm-none-eabi/4.3.2/../../../../arm-none-eabi/lib/thumb2/libc.a(lib_a-malloc.o)
 .text          0x00000000        0x0 c:/easyc/#tools/arm-gcc/bin/../lib/gcc/arm-none-eabi/4.3.2/../../../../arm-none-eabi/lib/thumb2/libc.a(lib_a-mallocr.o)
 .data          0x00000000        0x0 c:/easyc/#tools/arm-gcc/bin/../lib/gcc/arm-none-eabi/4.3.2/../../../../arm-none-eabi/lib/thumb2/libc.a(lib_a-mallocr.o)
 .bss           0x00000000        0x0 c:/easyc/#tools/arm-gcc/bin/../lib/gcc/arm-none-eabi/4.3.2/../../../../arm-none-eabi/lib/thumb2/libc.a(lib_a-mallocr.o)
 .debug_frame   0x00000000        0x0 c:/easyc/#tools/arm-gcc/bin/../lib/gcc/arm-none-eabi/4.3.2/../../../../arm-none-eabi/lib/thumb2/libc.a(lib_a-mallocr.o)
 .ARM.attributes
                0x00000000        0x0 c:/easyc/#tools/arm-gcc/bin/../lib/gcc/arm-none-eabi/4.3.2/../../../../arm-none-eabi/lib/thumb2/libc.a(lib_a-mallocr.o)
 .vfp11_veneer  0x00000000        0x0 c:/easyc/#tools/arm-gcc/bin/../lib/gcc/arm-none-eabi/4.3.2/../../../../arm-none-eabi/lib/thumb2/libc.a(lib_a-mallocr.o)
 .janus_2cc_veneer
                0x00000000        0x0 c:/easyc/#tools/arm-gcc/bin/../lib/gcc/arm-none-eabi/4.3.2/../../../../arm-none-eabi/lib/thumb2/libc.a(lib_a-mallocr.o)
 .v4_bx         0x00000000        0x0 c:/easyc/#tools/arm-gcc/bin/../lib/gcc/arm-none-eabi/4.3.2/../../../../arm-none-eabi/lib/thumb2/libc.a(lib_a-mallocr.o)
 .text          0x00000000        0x0 c:/easyc/#tools/arm-gcc/bin/../lib/gcc/arm-none-eabi/4.3.2/../../../../arm-none-eabi/lib/thumb2/libc.a(lib_a-mlock.o)
 .data          0x00000000        0x0 c:/easyc/#tools/arm-gcc/bin/../lib/gcc/arm-none-eabi/4.3.2/../../../../arm-none-eabi/lib/thumb2/libc.a(lib_a-mlock.o)
 .bss           0x00000000        0x0 c:/easyc/#tools/arm-gcc/bin/../lib/gcc/arm-none-eabi/4.3.2/../../../../arm-none-eabi/lib/thumb2/libc.a(lib_a-mlock.o)
 .debug_frame   0x00000000        0x0 c:/easyc/#tools/arm-gcc/bin/../lib/gcc/arm-none-eabi/4.3.2/../../../../arm-none-eabi/lib/thumb2/libc.a(lib_a-mlock.o)
 .ARM.attributes
                0x00000000        0x0 c:/easyc/#tools/arm-gcc/bin/../lib/gcc/arm-none-eabi/4.3.2/../../../../arm-none-eabi/lib/thumb2/libc.a(lib_a-mlock.o)
 .vfp11_veneer  0x00000000        0x0 c:/easyc/#tools/arm-gcc/bin/../lib/gcc/arm-none-eabi/4.3.2/../../../../arm-none-eabi/lib/thumb2/libc.a(lib_a-mlock.o)
 .janus_2cc_veneer
                0x00000000        0x0 c:/easyc/#tools/arm-gcc/bin/../lib/gcc/arm-none-eabi/4.3.2/../../../../arm-none-eabi/lib/thumb2/libc.a(lib_a-mlock.o)
 .v4_bx         0x00000000        0x0 c:/easyc/#tools/arm-gcc/bin/../lib/gcc/arm-none-eabi/4.3.2/../../../../arm-none-eabi/lib/thumb2/libc.a(lib_a-mlock.o)
 .text          0x00000000        0x0 c:/easyc/#tools/arm-gcc/bin/../lib/gcc/arm-none-eabi/4.3.2/../../../../arm-none-eabi/lib/thumb2/libc.a(lib_a-reent.o)
 .data          0x00000000        0x0 c:/easyc/#tools/arm-gcc/bin/../lib/gcc/arm-none-eabi/4.3.2/../../../../arm-none-eabi/lib/thumb2/libc.a(lib_a-reent.o)
 .bss           0x00000000        0x0 c:/easyc/#tools/arm-gcc/bin/../lib/gcc/arm-none-eabi/4.3.2/../../../../arm-none-eabi/lib/thumb2/libc.a(lib_a-reent.o)
 .debug_frame   0x00000000        0x0 c:/easyc/#tools/arm-gcc/bin/../lib/gcc/arm-none-eabi/4.3.2/../../../../arm-none-eabi/lib/thumb2/libc.a(lib_a-reent.o)
 .ARM.attributes
                0x00000000        0x0 c:/easyc/#tools/arm-gcc/bin/../lib/gcc/arm-none-eabi/4.3.2/../../../../arm-none-eabi/lib/thumb2/libc.a(lib_a-reent.o)
 COMMON         0x00000000        0x0 c:/easyc/#tools/arm-gcc/bin/../lib/gcc/arm-none-eabi/4.3.2/../../../../arm-none-eabi/lib/thumb2/libc.a(lib_a-reent.o)
 .vfp11_veneer  0x00000000        0x0 c:/easyc/#tools/arm-gcc/bin/../lib/gcc/arm-none-eabi/4.3.2/../../../../arm-none-eabi/lib/thumb2/libc.a(lib_a-reent.o)
 .janus_2cc_veneer
                0x00000000        0x0 c:/easyc/#tools/arm-gcc/bin/../lib/gcc/arm-none-eabi/4.3.2/../../../../arm-none-eabi/lib/thumb2/libc.a(lib_a-reent.o)
 .v4_bx         0x00000000        0x0 c:/easyc/#tools/arm-gcc/bin/../lib/gcc/arm-none-eabi/4.3.2/../../../../arm-none-eabi/lib/thumb2/libc.a(lib_a-reent.o)
 .text          0x00000000        0x0 c:/easyc/#tools/arm-gcc/bin/../lib/gcc/arm-none-eabi/4.3.2/../../../../arm-none-eabi/lib/thumb2/libc.a(lib_a-sbrkr.o)
 .data          0x00000000        0x0 c:/easyc/#tools/arm-gcc/bin/../lib/gcc/arm-none-eabi/4.3.2/../../../../arm-none-eabi/lib/thumb2/libc.a(lib_a-sbrkr.o)
 .bss           0x00000000        0x0 c:/easyc/#tools/arm-gcc/bin/../lib/gcc/arm-none-eabi/4.3.2/../../../../arm-none-eabi/lib/thumb2/libc.a(lib_a-sbrkr.o)
 .debug_frame   0x00000000        0x0 c:/easyc/#tools/arm-gcc/bin/../lib/gcc/arm-none-eabi/4.3.2/../../../../arm-none-eabi/lib/thumb2/libc.a(lib_a-sbrkr.o)
 .ARM.attributes
                0x00000000        0x0 c:/easyc/#tools/arm-gcc/bin/../lib/gcc/arm-none-eabi/4.3.2/../../../../arm-none-eabi/lib/thumb2/libc.a(lib_a-sbrkr.o)
 .vfp11_veneer  0x00000000        0x0 c:/easyc/#tools/arm-gcc/bin/../lib/gcc/arm-none-eabi/4.3.2/../../../../arm-none-eabi/lib/thumb2/libc.a(lib_a-sbrkr.o)
 .janus_2cc_veneer
                0x00000000        0x0 c:/easyc/#tools/arm-gcc/bin/../lib/gcc/arm-none-eabi/4.3.2/../../../../arm-none-eabi/lib/thumb2/libc.a(lib_a-sbrkr.o)
 .v4_bx         0x00000000        0x0 c:/easyc/#tools/arm-gcc/bin/../lib/gcc/arm-none-eabi/4.3.2/../../../../arm-none-eabi/lib/thumb2/libc.a(lib_a-sbrkr.o)
 .text          0x00000000        0x0 c:/easyc/#tools/arm-gcc/bin/../lib/gcc/arm-none-eabi/4.3.2/../../../../arm-none-eabi/lib/thumb2/libc.a(lib_a-freer.o)
 .data          0x00000000        0x0 c:/easyc/#tools/arm-gcc/bin/../lib/gcc/arm-none-eabi/4.3.2/../../../../arm-none-eabi/lib/thumb2/libc.a(lib_a-freer.o)
 .bss           0x00000000        0x0 c:/easyc/#tools/arm-gcc/bin/../lib/gcc/arm-none-eabi/4.3.2/../../../../arm-none-eabi/lib/thumb2/libc.a(lib_a-freer.o)
 .debug_frame   0x00000000        0x0 c:/easyc/#tools/arm-gcc/bin/../lib/gcc/arm-none-eabi/4.3.2/../../../../arm-none-eabi/lib/thumb2/libc.a(lib_a-freer.o)
 .ARM.attributes
                0x00000000        0x0 c:/easyc/#tools/arm-gcc/bin/../lib/gcc/arm-none-eabi/4.3.2/../../../../arm-none-eabi/lib/thumb2/libc.a(lib_a-freer.o)
 .vfp11_veneer  0x00000000        0x0 c:/easyc/#tools/arm-gcc/bin/../lib/gcc/arm-none-eabi/4.3.2/../../../../arm-none-eabi/lib/thumb2/libc.a(lib_a-freer.o)
 .janus_2cc_veneer
                0x00000000        0x0 c:/easyc/#tools/arm-gcc/bin/../lib/gcc/arm-none-eabi/4.3.2/../../../../arm-none-eabi/lib/thumb2/libc.a(lib_a-freer.o)
 .v4_bx         0x00000000        0x0 c:/easyc/#tools/arm-gcc/bin/../lib/gcc/arm-none-eabi/4.3.2/../../../../arm-none-eabi/lib/thumb2/libc.a(lib_a-freer.o)
 .data          0x00000000        0x0 c:/easyc/#tools/arm-gcc/bin/../lib/gcc/arm-none-eabi/4.3.2/thumb2/libgcc.a(_udivsi3.o)
 .bss           0x00000000        0x0 c:/easyc/#tools/arm-gcc/bin/../lib/gcc/arm-none-eabi/4.3.2/thumb2/libgcc.a(_udivsi3.o)
 .debug_frame   0x00000000        0x0 c:/easyc/#tools/arm-gcc/bin/../lib/gcc/arm-none-eabi/4.3.2/thumb2/libgcc.a(_udivsi3.o)
 .ARM.attributes
                0x00000000        0x0 c:/easyc/#tools/arm-gcc/bin/../lib/gcc/arm-none-eabi/4.3.2/thumb2/libgcc.a(_udivsi3.o)
 .vfp11_veneer  0x00000000        0x0 c:/easyc/#tools/arm-gcc/bin/../lib/gcc/arm-none-eabi/4.3.2/thumb2/libgcc.a(_udivsi3.o)
 .janus_2cc_veneer
                0x00000000        0x0 c:/easyc/#tools/arm-gcc/bin/../lib/gcc/arm-none-eabi/4.3.2/thumb2/libgcc.a(_udivsi3.o)
 .v4_bx         0x00000000        0x0 c:/easyc/#tools/arm-gcc/bin/../lib/gcc/arm-none-eabi/4.3.2/thumb2/libgcc.a(_udivsi3.o)
 .data          0x00000000        0x0 c:/easyc/#tools/arm-gcc/bin/../lib/gcc/arm-none-eabi/4.3.2/thumb2/libgcc.a(_divsi3.o)
 .bss           0x00000000        0x0 c:/easyc/#tools/arm-gcc/bin/../lib/gcc/arm-none-eabi/4.3.2/thumb2/libgcc.a(_divsi3.o)
 .debug_frame   0x00000000        0x0 c:/easyc/#tools/arm-gcc/bin/../lib/gcc/arm-none-eabi/4.3.2/thumb2/libgcc.a(_divsi3.o)
 .ARM.attributes
                0x00000000        0x0 c:/easyc/#tools/arm-gcc/bin/../lib/gcc/arm-none-eabi/4.3.2/thumb2/libgcc.a(_divsi3.o)
 .vfp11_veneer  0x00000000        0x0 c:/easyc/#tools/arm-gcc/bin/../lib/gcc/arm-none-eabi/4.3.2/thumb2/libgcc.a(_divsi3.o)
 .janus_2cc_veneer
                0x00000000        0x0 c:/easyc/#tools/arm-gcc/bin/../lib/gcc/arm-none-eabi/4.3.2/thumb2/libgcc.a(_divsi3.o)
 .v4_bx         0x00000000        0x0 c:/easyc/#tools/arm-gcc/bin/../lib/gcc/arm-none-eabi/4.3.2/thumb2/libgcc.a(_divsi3.o)
 .data          0x00000000        0x0 c:/easyc/#tools/arm-gcc/bin/../lib/gcc/arm-none-eabi/4.3.2/thumb2/libgcc.a(_dvmd_tls.o)
 .bss           0x00000000        0x0 c:/easyc/#tools/arm-gcc/bin/../lib/gcc/arm-none-eabi/4.3.2/thumb2/libgcc.a(_dvmd_tls.o)
 .ARM.attributes
                0x00000000        0x0 c:/easyc/#tools/arm-gcc/bin/../lib/gcc/arm-none-eabi/4.3.2/thumb2/libgcc.a(_dvmd_tls.o)
 .vfp11_veneer  0x00000000        0x0 c:/easyc/#tools/arm-gcc/bin/../lib/gcc/arm-none-eabi/4.3.2/thumb2/libgcc.a(_dvmd_tls.o)
 .janus_2cc_veneer
                0x00000000        0x0 c:/easyc/#tools/arm-gcc/bin/../lib/gcc/arm-none-eabi/4.3.2/thumb2/libgcc.a(_dvmd_tls.o)
 .v4_bx         0x00000000        0x0 c:/easyc/#tools/arm-gcc/bin/../lib/gcc/arm-none-eabi/4.3.2/thumb2/libgcc.a(_dvmd_tls.o)
 .data          0x00000000        0x0 c:/easyc/#tools/arm-gcc/bin/../lib/gcc/arm-none-eabi/4.3.2/thumb2/libgcc.a(_arm_addsubdf3.o)
 .bss           0x00000000        0x0 c:/easyc/#tools/arm-gcc/bin/../lib/gcc/arm-none-eabi/4.3.2/thumb2/libgcc.a(_arm_addsubdf3.o)
 .ARM.attributes
                0x00000000        0x0 c:/easyc/#tools/arm-gcc/bin/../lib/gcc/arm-none-eabi/4.3.2/thumb2/libgcc.a(_arm_addsubdf3.o)
 .vfp11_veneer  0x00000000        0x0 c:/easyc/#tools/arm-gcc/bin/../lib/gcc/arm-none-eabi/4.3.2/thumb2/libgcc.a(_arm_addsubdf3.o)
 .janus_2cc_veneer
                0x00000000        0x0 c:/easyc/#tools/arm-gcc/bin/../lib/gcc/arm-none-eabi/4.3.2/thumb2/libgcc.a(_arm_addsubdf3.o)
 .v4_bx         0x00000000        0x0 c:/easyc/#tools/arm-gcc/bin/../lib/gcc/arm-none-eabi/4.3.2/thumb2/libgcc.a(_arm_addsubdf3.o)
 .data          0x00000000        0x0 c:/easyc/#tools/arm-gcc/bin/../lib/gcc/arm-none-eabi/4.3.2/thumb2/libgcc.a(_arm_muldivdf3.o)
 .bss           0x00000000        0x0 c:/easyc/#tools/arm-gcc/bin/../lib/gcc/arm-none-eabi/4.3.2/thumb2/libgcc.a(_arm_muldivdf3.o)
 .ARM.attributes
                0x00000000        0x0 c:/easyc/#tools/arm-gcc/bin/../lib/gcc/arm-none-eabi/4.3.2/thumb2/libgcc.a(_arm_muldivdf3.o)
 .vfp11_veneer  0x00000000        0x0 c:/easyc/#tools/arm-gcc/bin/../lib/gcc/arm-none-eabi/4.3.2/thumb2/libgcc.a(_arm_muldivdf3.o)
 .janus_2cc_veneer
                0x00000000        0x0 c:/easyc/#tools/arm-gcc/bin/../lib/gcc/arm-none-eabi/4.3.2/thumb2/libgcc.a(_arm_muldivdf3.o)
 .v4_bx         0x00000000        0x0 c:/easyc/#tools/arm-gcc/bin/../lib/gcc/arm-none-eabi/4.3.2/thumb2/libgcc.a(_arm_muldivdf3.o)
 .data          0x00000000        0x0 c:/easyc/#tools/arm-gcc/bin/../lib/gcc/arm-none-eabi/4.3.2/thumb2/libgcc.a(_arm_cmpdf2.o)
 .bss           0x00000000        0x0 c:/easyc/#tools/arm-gcc/bin/../lib/gcc/arm-none-eabi/4.3.2/thumb2/libgcc.a(_arm_cmpdf2.o)
 .ARM.attributes
                0x00000000        0x0 c:/easyc/#tools/arm-gcc/bin/../lib/gcc/arm-none-eabi/4.3.2/thumb2/libgcc.a(_arm_cmpdf2.o)
 .vfp11_veneer  0x00000000        0x0 c:/easyc/#tools/arm-gcc/bin/../lib/gcc/arm-none-eabi/4.3.2/thumb2/libgcc.a(_arm_cmpdf2.o)
 .janus_2cc_veneer
                0x00000000        0x0 c:/easyc/#tools/arm-gcc/bin/../lib/gcc/arm-none-eabi/4.3.2/thumb2/libgcc.a(_arm_cmpdf2.o)
 .v4_bx         0x00000000        0x0 c:/easyc/#tools/arm-gcc/bin/../lib/gcc/arm-none-eabi/4.3.2/thumb2/libgcc.a(_arm_cmpdf2.o)
 .data          0x00000000        0x0 c:/easyc/#tools/arm-gcc/bin/../lib/gcc/arm-none-eabi/4.3.2/thumb2/libgcc.a(_arm_fixdfsi.o)
 .bss           0x00000000        0x0 c:/easyc/#tools/arm-gcc/bin/../lib/gcc/arm-none-eabi/4.3.2/thumb2/libgcc.a(_arm_fixdfsi.o)
 .ARM.attributes
                0x00000000        0x0 c:/easyc/#tools/arm-gcc/bin/../lib/gcc/arm-none-eabi/4.3.2/thumb2/libgcc.a(_arm_fixdfsi.o)
 .vfp11_veneer  0x00000000        0x0 c:/easyc/#tools/arm-gcc/bin/../lib/gcc/arm-none-eabi/4.3.2/thumb2/libgcc.a(_arm_fixdfsi.o)
 .janus_2cc_veneer
                0x00000000        0x0 c:/easyc/#tools/arm-gcc/bin/../lib/gcc/arm-none-eabi/4.3.2/thumb2/libgcc.a(_arm_fixdfsi.o)
 .v4_bx         0x00000000        0x0 c:/easyc/#tools/arm-gcc/bin/../lib/gcc/arm-none-eabi/4.3.2/thumb2/libgcc.a(_arm_fixdfsi.o)
 .text          0x00000000        0x0 c:/easyc/#tools/arm-gcc/bin/../lib/gcc/arm-none-eabi/4.3.2/thumb2/libgcc.a(_arm_fixunsdfsi.o)
 .data          0x00000000        0x0 c:/easyc/#tools/arm-gcc/bin/../lib/gcc/arm-none-eabi/4.3.2/thumb2/libgcc.a(_arm_fixunsdfsi.o)
 .bss           0x00000000        0x0 c:/easyc/#tools/arm-gcc/bin/../lib/gcc/arm-none-eabi/4.3.2/thumb2/libgcc.a(_arm_fixunsdfsi.o)
 .ARM.attributes
                0x00000000        0x0 c:/easyc/#tools/arm-gcc/bin/../lib/gcc/arm-none-eabi/4.3.2/thumb2/libgcc.a(_arm_fixunsdfsi.o)
 .vfp11_veneer  0x00000000        0x0 c:/easyc/#tools/arm-gcc/bin/../lib/gcc/arm-none-eabi/4.3.2/thumb2/libgcc.a(_arm_fixunsdfsi.o)
 .janus_2cc_veneer
                0x00000000        0x0 c:/easyc/#tools/arm-gcc/bin/../lib/gcc/arm-none-eabi/4.3.2/thumb2/libgcc.a(_arm_fixunsdfsi.o)
 .v4_bx         0x00000000        0x0 c:/easyc/#tools/arm-gcc/bin/../lib/gcc/arm-none-eabi/4.3.2/thumb2/libgcc.a(_arm_fixunsdfsi.o)
 .text          0x00000000        0x0 c:/easyc/#tools/arm-gcc/bin/../lib/gcc/arm-none-eabi/4.3.2/thumb2/libgcc.a(_arm_truncdfsf2.o)
 .data          0x00000000        0x0 c:/easyc/#tools/arm-gcc/bin/../lib/gcc/arm-none-eabi/4.3.2/thumb2/libgcc.a(_arm_truncdfsf2.o)
 .bss           0x00000000        0x0 c:/easyc/#tools/arm-gcc/bin/../lib/gcc/arm-none-eabi/4.3.2/thumb2/libgcc.a(_arm_truncdfsf2.o)
 .ARM.attributes
                0x00000000        0x0 c:/easyc/#tools/arm-gcc/bin/../lib/gcc/arm-none-eabi/4.3.2/thumb2/libgcc.a(_arm_truncdfsf2.o)
 .vfp11_veneer  0x00000000        0x0 c:/easyc/#tools/arm-gcc/bin/../lib/gcc/arm-none-eabi/4.3.2/thumb2/libgcc.a(_arm_truncdfsf2.o)
 .janus_2cc_veneer
                0x00000000        0x0 c:/easyc/#tools/arm-gcc/bin/../lib/gcc/arm-none-eabi/4.3.2/thumb2/libgcc.a(_arm_truncdfsf2.o)
 .v4_bx         0x00000000        0x0 c:/easyc/#tools/arm-gcc/bin/../lib/gcc/arm-none-eabi/4.3.2/thumb2/libgcc.a(_arm_truncdfsf2.o)
 .data          0x00000000        0x0 c:/easyc/#tools/arm-gcc/bin/../lib/gcc/arm-none-eabi/4.3.2/thumb2/libgcc.a(_arm_addsubsf3.o)
 .bss           0x00000000        0x0 c:/easyc/#tools/arm-gcc/bin/../lib/gcc/arm-none-eabi/4.3.2/thumb2/libgcc.a(_arm_addsubsf3.o)
 .ARM.attributes
                0x00000000        0x0 c:/easyc/#tools/arm-gcc/bin/../lib/gcc/arm-none-eabi/4.3.2/thumb2/libgcc.a(_arm_addsubsf3.o)
 .vfp11_veneer  0x00000000        0x0 c:/easyc/#tools/arm-gcc/bin/../lib/gcc/arm-none-eabi/4.3.2/thumb2/libgcc.a(_arm_addsubsf3.o)
 .janus_2cc_veneer
                0x00000000        0x0 c:/easyc/#tools/arm-gcc/bin/../lib/gcc/arm-none-eabi/4.3.2/thumb2/libgcc.a(_arm_addsubsf3.o)
 .v4_bx         0x00000000        0x0 c:/easyc/#tools/arm-gcc/bin/../lib/gcc/arm-none-eabi/4.3.2/thumb2/libgcc.a(_arm_addsubsf3.o)
 .data          0x00000000        0x0 c:/easyc/#tools/arm-gcc/bin/../lib/gcc/arm-none-eabi/4.3.2/thumb2/libgcc.a(_arm_muldivsf3.o)
 .bss           0x00000000        0x0 c:/easyc/#tools/arm-gcc/bin/../lib/gcc/arm-none-eabi/4.3.2/thumb2/libgcc.a(_arm_muldivsf3.o)
 .ARM.attributes
                0x00000000        0x0 c:/easyc/#tools/arm-gcc/bin/../lib/gcc/arm-none-eabi/4.3.2/thumb2/libgcc.a(_arm_muldivsf3.o)
 .vfp11_veneer  0x00000000        0x0 c:/easyc/#tools/arm-gcc/bin/../lib/gcc/arm-none-eabi/4.3.2/thumb2/libgcc.a(_arm_muldivsf3.o)
 .janus_2cc_veneer
                0x00000000        0x0 c:/easyc/#tools/arm-gcc/bin/../lib/gcc/arm-none-eabi/4.3.2/thumb2/libgcc.a(_arm_muldivsf3.o)
 .v4_bx         0x00000000        0x0 c:/easyc/#tools/arm-gcc/bin/../lib/gcc/arm-none-eabi/4.3.2/thumb2/libgcc.a(_arm_muldivsf3.o)
 .text          0x00000000        0x0 c:/easyc/#tools/arm-gcc/bin/../lib/gcc/arm-none-eabi/4.3.2/thumb2/libgcc.a(_arm_cmpsf2.o)
 .data          0x00000000        0x0 c:/easyc/#tools/arm-gcc/bin/../lib/gcc/arm-none-eabi/4.3.2/thumb2/libgcc.a(_arm_cmpsf2.o)
 .bss           0x00000000        0x0 c:/easyc/#tools/arm-gcc/bin/../lib/gcc/arm-none-eabi/4.3.2/thumb2/libgcc.a(_arm_cmpsf2.o)
 .ARM.attributes
                0x00000000        0x0 c:/easyc/#tools/arm-gcc/bin/../lib/gcc/arm-none-eabi/4.3.2/thumb2/libgcc.a(_arm_cmpsf2.o)
 .vfp11_veneer  0x00000000        0x0 c:/easyc/#tools/arm-gcc/bin/../lib/gcc/arm-none-eabi/4.3.2/thumb2/libgcc.a(_arm_cmpsf2.o)
 .janus_2cc_veneer
                0x00000000        0x0 c:/easyc/#tools/arm-gcc/bin/../lib/gcc/arm-none-eabi/4.3.2/thumb2/libgcc.a(_arm_cmpsf2.o)
 .v4_bx         0x00000000        0x0 c:/easyc/#tools/arm-gcc/bin/../lib/gcc/arm-none-eabi/4.3.2/thumb2/libgcc.a(_arm_cmpsf2.o)
 .data          0x00000000        0x0 c:/easyc/#tools/arm-gcc/bin/../lib/gcc/arm-none-eabi/4.3.2/thumb2/libgcc.a(_arm_fixunssfsi.o)
 .bss           0x00000000        0x0 c:/easyc/#tools/arm-gcc/bin/../lib/gcc/arm-none-eabi/4.3.2/thumb2/libgcc.a(_arm_fixunssfsi.o)
 .ARM.attributes
                0x00000000        0x0 c:/easyc/#tools/arm-gcc/bin/../lib/gcc/arm-none-eabi/4.3.2/thumb2/libgcc.a(_arm_fixunssfsi.o)
 .vfp11_veneer  0x00000000        0x0 c:/easyc/#tools/arm-gcc/bin/../lib/gcc/arm-none-eabi/4.3.2/thumb2/libgcc.a(_arm_fixunssfsi.o)
 .janus_2cc_veneer
                0x00000000        0x0 c:/easyc/#tools/arm-gcc/bin/../lib/gcc/arm-none-eabi/4.3.2/thumb2/libgcc.a(_arm_fixunssfsi.o)
 .v4_bx         0x00000000        0x0 c:/easyc/#tools/arm-gcc/bin/../lib/gcc/arm-none-eabi/4.3.2/thumb2/libgcc.a(_arm_fixunssfsi.o)

Memory Configuration

Name             Origin             Length             Attributes
RAM              0x20000000         0x00010000         xrw
FLASH            0x08000000         0x00060000         xr
FLASHB1          0x00000000         0x00000000         xr
EXTMEMB0         0x00000000         0x00000000         xr
EXTMEMB1         0x00000000         0x00000000         xr
EXTMEMB2         0x00000000         0x00000000         xr
EXTMEMB3         0x00000000         0x00000000         xr
*default*        0x00000000         0xffffffff

Linker script and memory map

LOAD cortex/vexlib/Startup/Startup.o
LOAD C:/Users\Mike\AppData\Roaming\Intelitek\easyC V4 for Cortex\Temp\Main.o
LOAD C:/Users\Mike\AppData\Roaming\Intelitek\easyC V4 for Cortex\Temp\MainIO.o
LOAD C:/Users\Mike\AppData\Roaming\Intelitek\easyC V4 for Cortex\Temp\Globals.o
LOAD C:/Users\Mike\AppData\Roaming\Intelitek\easyC V4 for Cortex\Temp\Initialize.o
LOAD C:/Users\Mike\AppData\Roaming\Intelitek\easyC V4 for Cortex\Temp\Autonomous.o
LOAD C:/Users\Mike\AppData\Roaming\Intelitek\easyC V4 for Cortex\Temp\OperatorControl.o
LOAD cortex/vexlib/easyCRuntime/easyCRuntimeLib.lib
LOAD cortex/vexlib/Link/STM32x_io_putchar_thumb.a
LOAD cortex/vexlib/Link/e_stdio_thumb.a
                0x00000400                __Stack_Size = 0x400
                0x00000400                PROVIDE (_Stack_Size, __Stack_Size)
                0x2000fc00                __Stack_Init = (_estack - __Stack_Size)
                0x2000fc00                PROVIDE (_Stack_Init, __Stack_Init)
                0x00000100                _Minimum_Stack_Size = 0x100
                0x00000000                PROVIDE (Undefined_Handler, 0x0)
                0x00000000                PROVIDE (SWI_Handler, 0x0)
                0x00000000                PROVIDE (IRQ_Handler, 0x0)
                0x00000000                PROVIDE (Prefetch_Handler, 0x0)
                0x00000000                PROVIDE (Abort_Handler, 0x0)
                0x00000000                PROVIDE (FIQ_Handler, 0x0)
                0x00000000                PROVIDE (NMIException, 0x0)
                0x00000000                PROVIDE (NMI_Handler, 0x0)
                0x00000000                PROVIDE (HardFaultException, 0x0)
                0x00000000                PROVIDE (HardFault_Handler, 0x0)
                0x00000000                PROVIDE (MemManageException, 0x0)
                0x00000000                PROVIDE (MemManage_Handler, 0x0)
                0x00000000                PROVIDE (BusFaultException, 0x0)
                0x00000000                PROVIDE (BusFault_Handler, 0x0)
                0x00000000                PROVIDE (UsageFaultException, 0x0)
                0x00000000                PROVIDE (UsageFault_Handler, 0x0)
                0x00000000                PROVIDE (SVCHandler, 0x0)
                0x00000000                PROVIDE (SVC_Handler, 0x0)
                0x00000000                PROVIDE (DebugMonitor, 0x0)
                0x00000000                PROVIDE (DebugMon_Handler, 0x0)
                0x00000000                PROVIDE (PendSVC, 0x0)
                0x00000000                PROVIDE (PendSV_Handler, 0x0)
                0x00000000                PROVIDE (SysTickHandler, 0x0)
                0x00000000                PROVIDE (SysTick_Handler, 0x0)
                0x00000000                PROVIDE (WWDG_IRQHandler, 0x0)
                0x00000000                PROVIDE (PVD_IRQHandler, 0x0)
                0x00000000                PROVIDE (TAMPER_IRQHandler, 0x0)
                0x00000000                PROVIDE (RTC_IRQHandler, 0x0)
                0x00000000                PROVIDE (FLASH_IRQHandler, 0x0)
                0x00000000                PROVIDE (RCC_IRQHandler, 0x0)
                0x00000000                PROVIDE (EXTI0_IRQHandler, 0x0)
                0x00000000                PROVIDE (EXTI1_IRQHandler, 0x0)
                0x00000000                PROVIDE (EXTI2_IRQHandler, 0x0)
                0x00000000                PROVIDE (EXTI3_IRQHandler, 0x0)
                0x00000000                PROVIDE (EXTI4_IRQHandler, 0x0)
                0x00000000                PROVIDE (DMAChannel1_IRQHandler, 0x0)
                0x00000000                PROVIDE (DMAChannel2_IRQHandler, 0x0)
                0x00000000                PROVIDE (DMAChannel3_IRQHandler, 0x0)
                0x00000000                PROVIDE (DMAChannel4_IRQHandler, 0x0)
                0x00000000                PROVIDE (DMAChannel5_IRQHandler, 0x0)
                0x00000000                PROVIDE (DMAChannel6_IRQHandler, 0x0)
                0x00000000                PROVIDE (DMAChannel7_IRQHandler, 0x0)
                0x00000000                PROVIDE (DMA1_Channel1_IRQHandler, 0x0)
                0x00000000                PROVIDE (DMA1_Channel2_IRQHandler, 0x0)
                0x00000000                PROVIDE (DMA1_Channel3_IRQHandler, 0x0)
                0x00000000                PROVIDE (DMA1_Channel4_IRQHandler, 0x0)
                0x00000000                PROVIDE (DMA1_Channel5_IRQHandler, 0x0)
                0x00000000                PROVIDE (DMA1_Channel6_IRQHandler, 0x0)
                0x00000000                PROVIDE (DMA1_Channel7_IRQHandler, 0x0)
                0x00000000                PROVIDE (ADC_IRQHandler, 0x0)
                0x00000000                PROVIDE (ADC1_2_IRQHandler, 0x0)
                0x00000000                PROVIDE (USB_HP_CAN_TX_IRQHandler, 0x0)
                0x00000000                PROVIDE (USB_HP_CAN1_TX_IRQHandler, 0x0)
                0x00000000                PROVIDE (USB_LP_CAN_RX0_IRQHandler, 0x0)
                0x00000000                PROVIDE (USB_LP_CAN1_RX0_IRQHandler, 0x0)
                0x00000000                PROVIDE (CAN_RX1_IRQHandler, 0x0)
                0x00000000                PROVIDE (CAN1_RX1_IRQHandler, 0x0)
                0x00000000                PROVIDE (CAN_SCE_IRQHandler, 0x0)
                0x00000000                PROVIDE (CAN1_SCE_IRQHandler, 0x0)
                0x00000000                PROVIDE (EXTI9_5_IRQHandler, 0x0)
                0x00000000                PROVIDE (TIM1_BRK_IRQHandler, 0x0)
                0x00000000                PROVIDE (TIM1_UP_IRQHandler, 0x0)
                0x00000000                PROVIDE (TIM1_TRG_COM_IRQHandler, 0x0)
                0x00000000                PROVIDE (TIM1_CC_IRQHandler, 0x0)
                0x00000000                PROVIDE (TIM2_IRQHandler, 0x0)
                0x00000000                PROVIDE (TIM3_IRQHandler, 0x0)
                0x00000000                PROVIDE (TIM4_IRQHandler, 0x0)
                0x00000000                PROVIDE (I2C1_EV_IRQHandler, 0x0)
                0x00000000                PROVIDE (I2C1_ER_IRQHandler, 0x0)
                0x00000000                PROVIDE (I2C2_EV_IRQHandler, 0x0)
                0x00000000                PROVIDE (I2C2_ER_IRQHandler, 0x0)
                0x00000000                PROVIDE (SPI1_IRQHandler, 0x0)
                0x00000000                PROVIDE (SPI2_IRQHandler, 0x0)
                0x00000000                PROVIDE (USART1_IRQHandler, 0x0)
                0x00000000                PROVIDE (USART2_IRQHandler, 0x0)
                0x00000000                PROVIDE (USART3_IRQHandler, 0x0)
                0x00000000                PROVIDE (EXTI15_10_IRQHandler, 0x0)
                0x00000000                PROVIDE (RTCAlarm_IRQHandler, 0x0)
                0x00000000                PROVIDE (USBWakeUp_IRQHandler, 0x0)
                0x00000000                PROVIDE (TIM8_BRK_IRQHandler, 0x0)
                0x00000000                PROVIDE (TIM8_UP_IRQHandler, 0x0)
                0x00000000                PROVIDE (TIM8_TRG_COM_IRQHandler, 0x0)
                0x00000000                PROVIDE (TIM8_CC_IRQHandler, 0x0)
                0x00000000                PROVIDE (ADC3_IRQHandler, 0x0)
                0x00000000                PROVIDE (FSMC_IRQHandler, 0x0)
                0x00000000                PROVIDE (SDIO_IRQHandler, 0x0)
                0x00000000                PROVIDE (TIM5_IRQHandler, 0x0)
                0x00000000                PROVIDE (SPI3_IRQHandler, 0x0)
                0x00000000                PROVIDE (UART4_IRQHandler, 0x0)
                0x00000000                PROVIDE (UART5_IRQHandler, 0x0)
                0x00000000                PROVIDE (TIM6_IRQHandler, 0x0)
                0x00000000                PROVIDE (TIM7_IRQHandler, 0x0)
                0x00000000                PROVIDE (DMA2_Channel1_IRQHandler, 0x0)
                0x00000000                PROVIDE (DMA2_Channel2_IRQHandler, 0x0)
                0x00000000                PROVIDE (DMA2_Channel3_IRQHandler, 0x0)
                0x00000000                PROVIDE (DMA2_Channel4_5_IRQHandler, 0x0)
                0x42000000                PERIPH_BB_BASE = 0x42000000
                0x22000000                SRAM_BB_BASE = 0x22000000
                0x20000000                SRAM_BASE = 0x20000000
                0x40000000                PERIPH_BASE = 0x40000000
                0x40022000                PROVIDE (FLASH_BASE, 0x40022000)
                0x1ffff800                PROVIDE (OB_BASE, 0x1ffff800)
                0x40000000                APB1PERIPH_BASE = PERIPH_BASE
                0x40010000                APB2PERIPH_BASE = (PERIPH_BASE + 0x10000)
                0x40020000                AHBPERIPH_BASE = (PERIPH_BASE + 0x20000)
                0x40000000                PROVIDE (TIM2, (APB1PERIPH_BASE + 0x0))
                0x40000400                PROVIDE (TIM3, (APB1PERIPH_BASE + 0x400))
                0x40000800                PROVIDE (TIM4, (APB1PERIPH_BASE + 0x800))
                0x40002800                PROVIDE (RTC, (APB1PERIPH_BASE + 0x2800))
                0x40002c00                PROVIDE (WWDG, (APB1PERIPH_BASE + 0x2c00))
                0x40003000                PROVIDE (IWDG, (APB1PERIPH_BASE + 0x3000))
                0x40003800                PROVIDE (SPI2, (APB1PERIPH_BASE + 0x3800))
                0x40004400                PROVIDE (USART2, (APB1PERIPH_BASE + 0x4400))
                0x40004800                PROVIDE (USART3, (APB1PERIPH_BASE + 0x4800))
                0x40005400                PROVIDE (I2C1, (APB1PERIPH_BASE + 0x5400))
                0x40005800                PROVIDE (I2C2, (APB1PERIPH_BASE + 0x5800))
                0x40006400                PROVIDE (CAN, (APB1PERIPH_BASE + 0x6400))
                0x40006c00                PROVIDE (BKP, (APB1PERIPH_BASE + 0x6c00))
                0x40007000                PROVIDE (PWR, (APB1PERIPH_BASE + 0x7000))
                0x40010000                PROVIDE (AFIO, (APB2PERIPH_BASE + 0x0))
                0x40010400                PROVIDE (EXTI, (APB2PERIPH_BASE + 0x400))
                0x40010800                PROVIDE (GPIOA, (APB2PERIPH_BASE + 0x800))
                0x40010c00                PROVIDE (GPIOB, (APB2PERIPH_BASE + 0xc00))
                0x40011000                PROVIDE (GPIOC, (APB2PERIPH_BASE + 0x1000))
                0x40011400                PROVIDE (GPIOD, (APB2PERIPH_BASE + 0x1400))
                0x40011800                PROVIDE (GPIOE, (APB2PERIPH_BASE + 0x1800))
                0x40012400                PROVIDE (ADC1, (APB2PERIPH_BASE + 0x2400))
                0x40012800                PROVIDE (ADC2, (APB2PERIPH_BASE + 0x2800))
                0x40012c00                PROVIDE (TIM1, (APB2PERIPH_BASE + 0x2c00))
                0x40013000                PROVIDE (SPI1, (APB2PERIPH_BASE + 0x3000))
                0x40013800                PROVIDE (USART1, (APB2PERIPH_BASE + 0x3800))
                0x40020000                PROVIDE (DMA, (AHBPERIPH_BASE + 0x0))
                0x40020008                PROVIDE (DMA_Channel1, (AHBPERIPH_BASE + 0x8))
                0x4002001c                PROVIDE (DMA_Channel2, (AHBPERIPH_BASE + 0x1c))
                0x40020030                PROVIDE (DMA_Channel3, (AHBPERIPH_BASE + 0x30))
                0x40020044                PROVIDE (DMA_Channel4, (AHBPERIPH_BASE + 0x44))
                0x40020058                PROVIDE (DMA_Channel5, (AHBPERIPH_BASE + 0x58))
                0x4002006c                PROVIDE (DMA_Channel6, (AHBPERIPH_BASE + 0x6c))
                0x40020080                PROVIDE (DMA_Channel7, (AHBPERIPH_BASE + 0x80))
                0x40021000                PROVIDE (RCC, (AHBPERIPH_BASE + 0x1000))
                0xe000e000                SCS_BASE = 0xe000e000
                0xe000e010                PROVIDE (SysTick, (SCS_BASE + 0x10))
                0xe000e100                PROVIDE (NVIC, (SCS_BASE + 0x100))
                0xe000ed00                PROVIDE (SCB, (SCS_BASE + 0xd00))
                0x20010000                _estack = 0x20010000

.isr_vector     0x08000000      0x130
                0x08000000                . = ALIGN (0x4)
 *(.isr_vector)
 .isr_vector    0x08000000      0x130 cortex/vexlib/Startup/Startup.o
                0x08000000                g_pfnVectors
                0x08000130                . = ALIGN (0x4)

.flashtext      0x08000130        0x0
                0x08000130                . = ALIGN (0x4)
 *(.flashtext)
                0x08000130                . = ALIGN (0x4)

.text           0x08000130     0x9ef8
                0x08000130                . = ALIGN (0x4)
 *(.text)
 .text          0x08000130      0xc30 cortex/vexlib/Link/e_stdio_thumb.a(_sp_vfprintf.o)
                0x08000130                _vfprintf_r
                0x08000d3c                vfprintf
 .text          0x08000d60       0x80 cortex/vexlib/Link/e_stdio_thumb.a(_sp_puts.o)
                0x08000d60                _SMALL_PRINTF_puts
                0x08000db8                puts
 .text          0x08000de0       0x48 cortex/vexlib/Link/e_stdio_thumb.a(_sp_sprintf.o)
                0x08000de0                sprintf
 .text          0x08000e28     0x10e0 cortex/vexlib/Link/e_stdio_thumb.a(small_dtoa.o)
                0x08000fa8                _dtoa_r
 .text          0x08001f08       0xbc cortex/vexlib/Link/e_stdio_thumb.a(small_wcsrtombs.o)
                0x08001f08                _wcsrtombs_r
                0x08001f9c                wcsrtombs
 .text          0x08001fc4       0x28 cortex/vexlib/Link/e_stdio_thumb.a(small_wcrtomb.o)
                0x08001fc4                _wcrtomb_r
                0x08001fc8                wcrtomb
 *fill*         0x08001fec        0x4 00
 .text          0x08001ff0      0x8b0 cortex/vexlib/Link/e_stdio_thumb.a(small_mprec.o)
                0x080025c0                _small_ratio
                0x0800281c                _small_s2b
                0x080022b4                __small_mcmp
                0x08002710                _small_pow5mult
                0x080022f8                __small_mdiff
                0x08002044                _small_lo0bits
                0x08002664                _small_multadd
                0x08002434                _small_b2d
                0x080020c0                _small_multiply
                0x080023e4                _small_ulp
                0x080024ec                _small_d2b
                0x08002614                small__mprec_log10
                0x08002218                _small_lshift
                0x08001ff0                _small_hi0bits
                0x080020ac                _small_i2b
 .text          0x080028a0       0x80 c:/easyc/#tools/arm-gcc/bin/../lib/gcc/arm-none-eabi/4.3.2/../../../../arm-none-eabi/lib/thumb2/libc.a(lib_a-memchr.o)
                0x080028a0                memchr
 .text          0x08002920       0x98 c:/easyc/#tools/arm-gcc/bin/../lib/gcc/arm-none-eabi/4.3.2/../../../../arm-none-eabi/lib/thumb2/libc.a(lib_a-memcpy.o)
                0x08002920                memcpy
 .text          0x080029b8       0x88 c:/easyc/#tools/arm-gcc/bin/../lib/gcc/arm-none-eabi/4.3.2/../../../../arm-none-eabi/lib/thumb2/libc.a(lib_a-memset.o)
                0x080029b8                memset
 .text          0x08002a40       0x24 c:/easyc/#tools/arm-gcc/bin/../lib/gcc/arm-none-eabi/4.3.2/../../../../arm-none-eabi/lib/thumb2/libc.a(lib_a-s_isinfd.o)
                0x08002a40                __isinfd
 .text          0x08002a64       0x20 c:/easyc/#tools/arm-gcc/bin/../lib/gcc/arm-none-eabi/4.3.2/../../../../arm-none-eabi/lib/thumb2/libc.a(lib_a-s_isnand.o)
                0x08002a64                __isnand
 .text          0x08002a84       0x34 c:/easyc/#tools/arm-gcc/bin/../lib/gcc/arm-none-eabi/4.3.2/../../../../arm-none-eabi/lib/thumb2/libc.a(lib_a-strlen.o)
                0x08002a84                strlen
 .text          0x08002ab8       0x8c c:/easyc/#tools/arm-gcc/bin/../lib/gcc/arm-none-eabi/4.3.2/thumb2/libgcc.a(_udivsi3.o)
                0x08002ab8                __udivsi3
                0x08002ab8                __aeabi_uidiv
                0x08002b30                __aeabi_uidivmod
 .text          0x08002b44       0xb0 c:/easyc/#tools/arm-gcc/bin/../lib/gcc/arm-none-eabi/4.3.2/thumb2/libgcc.a(_divsi3.o)
                0x08002b44                __aeabi_idiv
                0x08002b44                __divsi3
                0x08002be0                __aeabi_idivmod
 .text          0x08002bf4        0x4 c:/easyc/#tools/arm-gcc/bin/../lib/gcc/arm-none-eabi/4.3.2/thumb2/libgcc.a(_dvmd_tls.o)
                0x08002bf4                __aeabi_ldiv0
                0x08002bf4                __aeabi_idiv0
 .text          0x08002bf8      0x370 c:/easyc/#tools/arm-gcc/bin/../lib/gcc/arm-none-eabi/4.3.2/thumb2/libgcc.a(_arm_addsubdf3.o)
                0x08002f0c                __floatdidf
                0x08002e9c                __floatsidf
                0x08002e7c                __aeabi_ui2d
                0x08002bf8                __aeabi_drsub
                0x08002ec0                __extendsfdf2
                0x08002c04                __adddf3
                0x08002e7c                __floatunsidf
                0x08002c04                __aeabi_dadd
                0x08002efc                __aeabi_ul2d
                0x08002c00                __aeabi_dsub
                0x08002efc                __floatundidf
                0x08002e9c                __aeabi_i2d
                0x08002f0c                __aeabi_l2d
                0x08002ec0                __aeabi_f2d
                0x08002c00                __subdf3
 .text          0x08002f68      0x424 c:/easyc/#tools/arm-gcc/bin/../lib/gcc/arm-none-eabi/4.3.2/thumb2/libgcc.a(_arm_muldivdf3.o)
                0x080031bc                __aeabi_ddiv
                0x08002f68                __aeabi_dmul
                0x080031bc                __divdf3
                0x08002f68                __muldf3
 .text          0x0800338c      0x10c c:/easyc/#tools/arm-gcc/bin/../lib/gcc/arm-none-eabi/4.3.2/thumb2/libgcc.a(_arm_cmpdf2.o)
                0x0800345c                __aeabi_dcmple
                0x0800339c                __cmpdf2
                0x0800339c                __eqdf2
                0x0800338c                __gtdf2
                0x08003424                __aeabi_cdcmple
                0x08003414                __aeabi_cdrcmple
                0x08003394                __ltdf2
                0x08003448                __aeabi_dcmplt
                0x08003394                __ledf2
                0x08003484                __aeabi_dcmpgt
                0x08003470                __aeabi_dcmpge
                0x0800339c                __nedf2
                0x08003434                __aeabi_dcmpeq
                0x08003424                __aeabi_cdcmpeq
                0x0800338c                __gedf2
 .text          0x08003498       0x50 c:/easyc/#tools/arm-gcc/bin/../lib/gcc/arm-none-eabi/4.3.2/thumb2/libgcc.a(_arm_fixdfsi.o)
                0x08003498                __fixdfsi
                0x08003498                __aeabi_d2iz
 .text          0x080034e8      0x21c c:/easyc/#tools/arm-gcc/bin/../lib/gcc/arm-none-eabi/4.3.2/thumb2/libgcc.a(_arm_addsubsf3.o)
                0x080034f4                __aeabi_fadd
                0x080034f0                __subsf3
                0x0800365c                __aeabi_i2f
                0x080034f0                __aeabi_fsub
                0x08003688                __floatdisf
                0x0800365c                __floatsisf
                0x08003678                __floatundisf
                0x08003654                __aeabi_ui2f
                0x08003688                __aeabi_l2f
                0x08003678                __aeabi_ul2f
                0x080034e8                __aeabi_frsub
                0x08003654                __floatunsisf
                0x080034f4                __addsf3
 .text          0x08003704      0x2a0 c:/easyc/#tools/arm-gcc/bin/../lib/gcc/arm-none-eabi/4.3.2/thumb2/libgcc.a(_arm_muldivsf3.o)
                0x0800386c                __divsf3
                0x0800386c                __aeabi_fdiv
                0x08003704                __mulsf3
                0x08003704                __aeabi_fmul
 .text          0x080039a4       0x40 c:/easyc/#tools/arm-gcc/bin/../lib/gcc/arm-none-eabi/4.3.2/thumb2/libgcc.a(_arm_fixunssfsi.o)
                0x080039a4                __aeabi_f2uiz
                0x080039a4                __fixunssfsi
 *(.text.*)
 .text.StartCompetition
                0x080039e4      0x1ac cortex/vexlib/Startup/Startup.o
                0x080039e4                StartCompetition
 .text.Reset_Handler
                0x08003b90      0x104 cortex/vexlib/Startup/Startup.o
                0x08003b90                Reset_Handler
 .text.main     0x08003c94       0x24 C:/Users\Mike\AppData\Roaming\Intelitek\easyC V4 for Cortex\Temp\Main.o
                0x08003c94                main
 .text.IO_Initialization
                0x08003cb8       0x5c C:/Users\Mike\AppData\Roaming\Intelitek\easyC V4 for Cortex\Temp\MainIO.o
                0x08003cb8                IO_Initialization
 .text.Initialize
                0x08003d14        0xc C:/Users\Mike\AppData\Roaming\Intelitek\easyC V4 for Cortex\Temp\Initialize.o
                0x08003d14                Initialize
 .text.Autonomous
                0x08003d20       0x14 C:/Users\Mike\AppData\Roaming\Intelitek\easyC V4 for Cortex\Temp\Autonomous.o
                0x08003d20                Autonomous
 .text.OperatorControl
                0x08003d34        0xc C:/Users\Mike\AppData\Roaming\Intelitek\easyC V4 for Cortex\Temp\OperatorControl.o
                0x08003d34                OperatorControl
 .text.WriteUserBit
                0x08003d40       0x2c cortex/vexlib/easyCRuntime/easyCRuntimeLib.lib(easyCRuntime.o)
                0x08003d40                WriteUserBit
 .text.ReadUserBit
                0x08003d6c       0x28 cortex/vexlib/easyCRuntime/easyCRuntimeLib.lib(easyCRuntime.o)
                0x08003d6c                ReadUserBit
 .text.ResetCore
                0x08003d94       0x24 cortex/vexlib/easyCRuntime/easyCRuntimeLib.lib(easyCRuntime.o)
                0x08003d94                ResetCore
 .text.IsAutonomous
                0x08003db8       0x4c cortex/vexlib/easyCRuntime/easyCRuntimeLib.lib(easyCRuntime.o)
                0x08003db8                IsAutonomous
 .text.IsEnabled
                0x08003e04       0x1c cortex/vexlib/easyCRuntime/easyCRuntimeLib.lib(easyCRuntime.o)
                0x08003e04                IsEnabled
 .text.IsCompTemplate
                0x08003e20       0x5c cortex/vexlib/easyCRuntime/easyCRuntimeLib.lib(easyCRuntime.o)
                0x08003e20                IsCompTemplate
 .text.SetCompetitionMode
                0x08003e7c       0x48 cortex/vexlib/easyCRuntime/easyCRuntimeLib.lib(easyCRuntime.o)
                0x08003e7c                SetCompetitionMode
 .text.UpdateCompTime
                0x08003ec4       0x60 cortex/vexlib/easyCRuntime/easyCRuntimeLib.lib(easyCRuntime.o)
                0x08003ec4                UpdateCompTime
 .text.IsOnLine
                0x08003f24       0x1c cortex/vexlib/easyCRuntime/easyCRuntimeLib.lib(easyCRuntime.o)
                0x08003f24                IsOnLine
 .text.SetOnLine
                0x08003f40       0x3c cortex/vexlib/easyCRuntime/easyCRuntimeLib.lib(easyCRuntime.o)
                0x08003f40                SetOnLine
 .text.GetMsClock
                0x08003f7c       0x20 cortex/vexlib/easyCRuntime/easyCRuntimeLib.lib(Clock.o)
                0x08003f7c                GetMsClock
 .text.GetGameTime
                0x08003f9c       0x40 cortex/vexlib/easyCRuntime/easyCRuntimeLib.lib(Clock.o)
                0x08003f9c                GetGameTime
 .text.Wait     0x08003fdc       0x44 cortex/vexlib/easyCRuntime/easyCRuntimeLib.lib(Clock.o)
                0x08003fdc                Wait
 .text.SysTickHandler
                0x08004020      0x6e4 cortex/vexlib/easyCRuntime/easyCRuntimeLib.lib(Clock.o)
                0x08004020                SysTickHandler
 .text.TIM2_IRQHandler
                0x08004704      0x190 cortex/vexlib/easyCRuntime/easyCRuntimeLib.lib(Clock.o)
                0x08004704                TIM2_IRQHandler
 .text.TIM3_IRQHandler
                0x08004894      0x1a0 cortex/vexlib/easyCRuntime/easyCRuntimeLib.lib(Clock.o)
                0x08004894                TIM3_IRQHandler
 .text.__io_putchar
                0x08004a34       0xe4 cortex/vexlib/easyCRuntime/easyCRuntimeLib.lib(Comm.o)
                0x08004a34                __io_putchar
 .text.SPI_Initialize
                0x08004b18      0x120 cortex/vexlib/easyCRuntime/easyCRuntimeLib.lib(Comm.o)
                0x08004b18                SPI_Initialize
 .text.UpdateMaster
                0x08004c38      0x40c cortex/vexlib/easyCRuntime/easyCRuntimeLib.lib(Comm.o)
                0x08004c38                UpdateMaster
 .text.Invoke_SPI_Transfer
                0x08005044      0x144 cortex/vexlib/easyCRuntime/easyCRuntimeLib.lib(Comm.o)
                0x08005044                Invoke_SPI_Transfer
 .text.WaitTillMasterIsReadyForSpiData
                0x08005188       0xe0 cortex/vexlib/easyCRuntime/easyCRuntimeLib.lib(Comm.o)
                0x08005188                WaitTillMasterIsReadyForSpiData
 .text.Handle_Configuration
                0x08005268       0x60 cortex/vexlib/easyCRuntime/easyCRuntimeLib.lib(Comm.o)
                0x08005268                Handle_Configuration
 .text.Handle_Data_From_Crystal
                0x080052c8      0x1a0 cortex/vexlib/easyCRuntime/easyCRuntimeLib.lib(Comm.o)
                0x080052c8                Handle_Data_From_Crystal
 .text.USART1_IRQHandler
                0x08005468      0x16c cortex/vexlib/easyCRuntime/easyCRuntimeLib.lib(Comm.o)
                0x08005468                USART1_IRQHandler
 .text.RCC_Configuration
                0x080055d4       0xb4 cortex/vexlib/easyCRuntime/easyCRuntimeLib.lib(Config.o)
                0x080055d4                RCC_Configuration
 .text.NVIC_Configuration
                0x08005688      0x134 cortex/vexlib/easyCRuntime/easyCRuntimeLib.lib(Config.o)
                0x08005688                NVIC_Configuration
 .text.GPIO_Configuration
                0x080057bc      0x334 cortex/vexlib/easyCRuntime/easyCRuntimeLib.lib(Config.o)
                0x080057bc                GPIO_Configuration
 .text.DMA_Configuration
                0x08005af0       0x88 cortex/vexlib/easyCRuntime/easyCRuntimeLib.lib(Config.o)
                0x08005af0                DMA_Configuration
 .text.ADC_Configuration
                0x08005b78      0x170 cortex/vexlib/easyCRuntime/easyCRuntimeLib.lib(Config.o)
                0x08005b78                ADC_Configuration
 .text.EXTI_Configuration
                0x08005ce8        0xc cortex/vexlib/easyCRuntime/easyCRuntimeLib.lib(Config.o)
                0x08005ce8                EXTI_Configuration
 .text.USART_Configuration
                0x08005cf4      0x16c cortex/vexlib/easyCRuntime/easyCRuntimeLib.lib(Config.o)
                0x08005cf4                USART_Configuration
 .text.SysTick_Configuration
                0x08005e60       0x20 cortex/vexlib/easyCRuntime/easyCRuntimeLib.lib(Config.o)
                0x08005e60                SysTick_Configuration
 .text.Setup_timer4
                0x08005e80       0xd4 cortex/vexlib/easyCRuntime/easyCRuntimeLib.lib(Config.o)
                0x08005e80                Setup_timer4
 .text.TIM_Configuration
                0x08005f54      0x278 cortex/vexlib/easyCRuntime/easyCRuntimeLib.lib(Config.o)
                0x08005f54                TIM_Configuration
 .text.MCU_Configuration
                0x080061cc       0x2c cortex/vexlib/easyCRuntime/easyCRuntimeLib.lib(Config.o)
                0x080061cc                MCU_Configuration
 .text.CheckDigitalInputPort
                0x080061f8       0x44 cortex/vexlib/easyCRuntime/easyCRuntimeLib.lib(InputOutput.o)
                0x080061f8                CheckDigitalInputPort
 .text.CheckDigitalOutputPort
                0x0800623c       0x44 cortex/vexlib/easyCRuntime/easyCRuntimeLib.lib(InputOutput.o)
                0x0800623c                CheckDigitalOutputPort
 .text.CheckAnalogInputPort
                0x08006280       0x34 cortex/vexlib/easyCRuntime/easyCRuntimeLib.lib(InputOutput.o)
                0x08006280                CheckAnalogInputPort
 .text.ConfigDIOPort
                0x080062b4       0xa0 cortex/vexlib/easyCRuntime/easyCRuntimeLib.lib(InputOutput.o)
                0x080062b4                ConfigDIOPort
 .text.DefineControllerIO
                0x08006354       0xfc cortex/vexlib/easyCRuntime/easyCRuntimeLib.lib(InputOutput.o)
                0x08006354                DefineControllerIO
 .text.SetDigitalOutput
                0x08006450       0x50 cortex/vexlib/easyCRuntime/easyCRuntimeLib.lib(InputOutput.o)
                0x08006450                SetDigitalOutput
 .text.GetDigitalInput
                0x080064a0       0x6c cortex/vexlib/easyCRuntime/easyCRuntimeLib.lib(InputOutput.o)
                0x080064a0                GetDigitalInput
 .text.GetAnalogInput
                0x0800650c       0x68 cortex/vexlib/easyCRuntime/easyCRuntimeLib.lib(InputOutput.o)
                0x0800650c                GetAnalogInput
 .text.BlinkOutput
                0x08006574       0xac cortex/vexlib/easyCRuntime/easyCRuntimeLib.lib(InputOutput.o)
                0x08006574                BlinkOutput
 .text.InitializeInterrupts
                0x08006620      0x13c cortex/vexlib/easyCRuntime/easyCRuntimeLib.lib(Interrupts.o)
                0x08006620                InitializeInterrupts
 .text.EXTI0_IRQHandler
                0x0800675c       0x60 cortex/vexlib/easyCRuntime/easyCRuntimeLib.lib(Interrupts.o)
                0x0800675c                EXTI0_IRQHandler
 .text.EXTI1_IRQHandler
                0x080067bc       0x60 cortex/vexlib/easyCRuntime/easyCRuntimeLib.lib(Interrupts.o)
                0x080067bc                EXTI1_IRQHandler
 .text.EXTI2_IRQHandler
                0x0800681c        0xc cortex/vexlib/easyCRuntime/easyCRuntimeLib.lib(Interrupts.o)
                0x0800681c                EXTI2_IRQHandler
 .text.EXTI3_IRQHandler
                0x08006828        0xc cortex/vexlib/easyCRuntime/easyCRuntimeLib.lib(Interrupts.o)
                0x08006828                EXTI3_IRQHandler
 .text.EXTI4_IRQHandler
                0x08006834        0xc cortex/vexlib/easyCRuntime/easyCRuntimeLib.lib(Interrupts.o)
                0x08006834                EXTI4_IRQHandler
 .text.EXTI9_5_IRQHandler
                0x08006840      0x150 cortex/vexlib/easyCRuntime/easyCRuntimeLib.lib(Interrupts.o)
                0x08006840                EXTI9_5_IRQHandler
 .text.EXTI15_10_IRQHandler
                0x08006990      0x1a0 cortex/vexlib/easyCRuntime/easyCRuntimeLib.lib(Interrupts.o)
                0x08006990                EXTI15_10_IRQHandler
 .text.Process_Data_From_Local_IO
                0x08006b30       0x90 cortex/vexlib/easyCRuntime/easyCRuntimeLib.lib(LCD.o)
                0x08006b30                Process_Data_From_Local_IO
 .text.USART2_IRQHandler
                0x08006bc0       0xe8 cortex/vexlib/easyCRuntime/easyCRuntimeLib.lib(LCD.o)
                0x08006bc0                USART2_IRQHandler
 .text.USART3_IRQHandler
                0x08006ca8       0xe8 cortex/vexlib/easyCRuntime/easyCRuntimeLib.lib(LCD.o)
                0x08006ca8                USART3_IRQHandler
 .text.Delay    0x08006d90       0x30 cortex/vexlib/easyCRuntime/easyCRuntimeLib.lib(Motors.o)
                0x08006d90                Delay
 .text.SetPWM   0x08006dc0       0x6c cortex/vexlib/easyCRuntime/easyCRuntimeLib.lib(Motors.o)
                0x08006dc0                SetPWM
 .text.SetMotorReal
                0x08006e2c      0x134 cortex/vexlib/easyCRuntime/easyCRuntimeLib.lib(Motors.o)
                0x08006e2c                SetMotorReal
 .text.Set_MotorControl_To_Neutral
                0x08006f60       0x88 cortex/vexlib/easyCRuntime/easyCRuntimeLib.lib(Motors.o)
                0x08006f60                Set_MotorControl_To_Neutral
 .text.Set_MotorControl_Sw1
                0x08006fe8       0xf8 cortex/vexlib/easyCRuntime/easyCRuntimeLib.lib(Motors.o)
                0x08006fe8                Set_MotorControl_Sw1
 .text.Set_MotorControl_Sw2
                0x080070e0       0xfc cortex/vexlib/easyCRuntime/easyCRuntimeLib.lib(Motors.o)
                0x080070e0                Set_MotorControl_Sw2
 .text.PrintToScreen
                0x080071dc       0x3c cortex/vexlib/easyCRuntime/easyCRuntimeLib.lib(Print.o)
                0x080071dc                PrintToScreen
 .text.PrintError
                0x08007218       0x34 cortex/vexlib/easyCRuntime/easyCRuntimeLib.lib(Print.o)
                0x08007218                PrintError
 .text.NMIException
                0x0800724c        0xc cortex/vexlib/easyCRuntime/easyCRuntimeLib.lib(stm32f10x_it.o)
                0x0800724c                NMIException
 .text.HardFaultException
                0x08007258        0x8 cortex/vexlib/easyCRuntime/easyCRuntimeLib.lib(stm32f10x_it.o)
                0x08007258                HardFaultException
 .text.MemManageException
                0x08007260        0x8 cortex/vexlib/easyCRuntime/easyCRuntimeLib.lib(stm32f10x_it.o)
                0x08007260                MemManageException
 .text.BusFaultException
                0x08007268        0x8 cortex/vexlib/easyCRuntime/easyCRuntimeLib.lib(stm32f10x_it.o)
                0x08007268                BusFaultException
 .text.UsageFaultException
                0x08007270        0x8 cortex/vexlib/easyCRuntime/easyCRuntimeLib.lib(stm32f10x_it.o)
                0x08007270                UsageFaultException
 .text.DebugMonitor
                0x08007278        0xc cortex/vexlib/easyCRuntime/easyCRuntimeLib.lib(stm32f10x_it.o)
                0x08007278                DebugMonitor
 .text.SVCHandler
                0x08007284        0xc cortex/vexlib/easyCRuntime/easyCRuntimeLib.lib(stm32f10x_it.o)
                0x08007284                SVCHandler
 .text.PendSVC  0x08007290        0xc cortex/vexlib/easyCRuntime/easyCRuntimeLib.lib(stm32f10x_it.o)
                0x08007290                PendSVC
 .text.WWDG_IRQHandler
                0x0800729c        0xc cortex/vexlib/easyCRuntime/easyCRuntimeLib.lib(stm32f10x_it.o)
                0x0800729c                WWDG_IRQHandler
 .text.PVD_IRQHandler
                0x080072a8        0xc cortex/vexlib/easyCRuntime/easyCRuntimeLib.lib(stm32f10x_it.o)
                0x080072a8                PVD_IRQHandler
 .text.TAMPER_IRQHandler
                0x080072b4        0xc cortex/vexlib/easyCRuntime/easyCRuntimeLib.lib(stm32f10x_it.o)
                0x080072b4                TAMPER_IRQHandler
 .text.RTC_IRQHandler
                0x080072c0        0xc cortex/vexlib/easyCRuntime/easyCRuntimeLib.lib(stm32f10x_it.o)
                0x080072c0                RTC_IRQHandler
 .text.FLASH_IRQHandler
                0x080072cc        0xc cortex/vexlib/easyCRuntime/easyCRuntimeLib.lib(stm32f10x_it.o)
                0x080072cc                FLASH_IRQHandler
 .text.RCC_IRQHandler
                0x080072d8        0xc cortex/vexlib/easyCRuntime/easyCRuntimeLib.lib(stm32f10x_it.o)
                0x080072d8                RCC_IRQHandler
 .text.DMA1_Channel1_IRQHandler
                0x080072e4        0xc cortex/vexlib/easyCRuntime/easyCRuntimeLib.lib(stm32f10x_it.o)
                0x080072e4                DMA1_Channel1_IRQHandler
 .text.DMA1_Channel2_IRQHandler
                0x080072f0        0xc cortex/vexlib/easyCRuntime/easyCRuntimeLib.lib(stm32f10x_it.o)
                0x080072f0                DMA1_Channel2_IRQHandler
 .text.DMA1_Channel3_IRQHandler
                0x080072fc        0xc cortex/vexlib/easyCRuntime/easyCRuntimeLib.lib(stm32f10x_it.o)
                0x080072fc                DMA1_Channel3_IRQHandler
 .text.DMA1_Channel4_IRQHandler
                0x08007308        0xc cortex/vexlib/easyCRuntime/easyCRuntimeLib.lib(stm32f10x_it.o)
                0x08007308                DMA1_Channel4_IRQHandler
 .text.DMA1_Channel5_IRQHandler
                0x08007314        0xc cortex/vexlib/easyCRuntime/easyCRuntimeLib.lib(stm32f10x_it.o)
                0x08007314                DMA1_Channel5_IRQHandler
 .text.DMA1_Channel6_IRQHandler
                0x08007320        0xc cortex/vexlib/easyCRuntime/easyCRuntimeLib.lib(stm32f10x_it.o)
                0x08007320                DMA1_Channel6_IRQHandler
 .text.DMA1_Channel7_IRQHandler
                0x0800732c        0xc cortex/vexlib/easyCRuntime/easyCRuntimeLib.lib(stm32f10x_it.o)
                0x0800732c                DMA1_Channel7_IRQHandler
 .text.ADC1_2_IRQHandler
                0x08007338        0xc cortex/vexlib/easyCRuntime/easyCRuntimeLib.lib(stm32f10x_it.o)
                0x08007338                ADC1_2_IRQHandler
 .text.USB_HP_CAN_TX_IRQHandler
                0x08007344        0xc cortex/vexlib/easyCRuntime/easyCRuntimeLib.lib(stm32f10x_it.o)
                0x08007344                USB_HP_CAN_TX_IRQHandler
 .text.USB_LP_CAN_RX0_IRQHandler
                0x08007350        0xc cortex/vexlib/easyCRuntime/easyCRuntimeLib.lib(stm32f10x_it.o)
                0x08007350                USB_LP_CAN_RX0_IRQHandler
 .text.CAN_RX1_IRQHandler
                0x0800735c        0xc cortex/vexlib/easyCRuntime/easyCRuntimeLib.lib(stm32f10x_it.o)
                0x0800735c                CAN_RX1_IRQHandler
 .text.CAN_SCE_IRQHandler
                0x08007368        0xc cortex/vexlib/easyCRuntime/easyCRuntimeLib.lib(stm32f10x_it.o)
                0x08007368                CAN_SCE_IRQHandler
 .text.TIM1_BRK_IRQHandler
                0x08007374        0xc cortex/vexlib/easyCRuntime/easyCRuntimeLib.lib(stm32f10x_it.o)
                0x08007374                TIM1_BRK_IRQHandler
 .text.TIM1_UP_IRQHandler
                0x08007380        0xc cortex/vexlib/easyCRuntime/easyCRuntimeLib.lib(stm32f10x_it.o)
                0x08007380                TIM1_UP_IRQHandler
 .text.TIM1_TRG_COM_IRQHandler
                0x0800738c        0xc cortex/vexlib/easyCRuntime/easyCRuntimeLib.lib(stm32f10x_it.o)
                0x0800738c                TIM1_TRG_COM_IRQHandler
 .text.TIM1_CC_IRQHandler
                0x08007398       0x78 cortex/vexlib/easyCRuntime/easyCRuntimeLib.lib(stm32f10x_it.o)
                0x08007398                TIM1_CC_IRQHandler
 .text.TIM4_IRQHandler
                0x08007410       0x30 cortex/vexlib/easyCRuntime/easyCRuntimeLib.lib(stm32f10x_it.o)
                0x08007410                TIM4_IRQHandler
 .text.I2C1_EV_IRQHandler
                0x08007440        0xc cortex/vexlib/easyCRuntime/easyCRuntimeLib.lib(stm32f10x_it.o)
                0x08007440                I2C1_EV_IRQHandler
 .text.I2C1_ER_IRQHandler
                0x0800744c        0xc cortex/vexlib/easyCRuntime/easyCRuntimeLib.lib(stm32f10x_it.o)
                0x0800744c                I2C1_ER_IRQHandler
 .text.I2C2_EV_IRQHandler
                0x08007458        0xc cortex/vexlib/easyCRuntime/easyCRuntimeLib.lib(stm32f10x_it.o)
                0x08007458                I2C2_EV_IRQHandler
 .text.I2C2_ER_IRQHandler
                0x08007464        0xc cortex/vexlib/easyCRuntime/easyCRuntimeLib.lib(stm32f10x_it.o)
                0x08007464                I2C2_ER_IRQHandler
 .text.SPI1_IRQHandler
                0x08007470        0xc cortex/vexlib/easyCRuntime/easyCRuntimeLib.lib(stm32f10x_it.o)
                0x08007470                SPI1_IRQHandler
 .text.SPI2_IRQHandler
                0x0800747c        0xc cortex/vexlib/easyCRuntime/easyCRuntimeLib.lib(stm32f10x_it.o)
                0x0800747c                SPI2_IRQHandler
 .text.RTCAlarm_IRQHandler
                0x08007488        0xc cortex/vexlib/easyCRuntime/easyCRuntimeLib.lib(stm32f10x_it.o)
                0x08007488                RTCAlarm_IRQHandler
 .text.USBWakeUp_IRQHandler
                0x08007494        0xc cortex/vexlib/easyCRuntime/easyCRuntimeLib.lib(stm32f10x_it.o)
                0x08007494                USBWakeUp_IRQHandler
 .text.TIM8_BRK_IRQHandler
                0x080074a0        0xc cortex/vexlib/easyCRuntime/easyCRuntimeLib.lib(stm32f10x_it.o)
                0x080074a0                TIM8_BRK_IRQHandler
 .text.TIM8_UP_IRQHandler
                0x080074ac        0xc cortex/vexlib/easyCRuntime/easyCRuntimeLib.lib(stm32f10x_it.o)
                0x080074ac                TIM8_UP_IRQHandler
 .text.TIM8_TRG_COM_IRQHandler
                0x080074b8        0xc cortex/vexlib/easyCRuntime/easyCRuntimeLib.lib(stm32f10x_it.o)
                0x080074b8                TIM8_TRG_COM_IRQHandler
 .text.TIM8_CC_IRQHandler
                0x080074c4        0xc cortex/vexlib/easyCRuntime/easyCRuntimeLib.lib(stm32f10x_it.o)
                0x080074c4                TIM8_CC_IRQHandler
 .text.ADC3_IRQHandler
                0x080074d0        0xc cortex/vexlib/easyCRuntime/easyCRuntimeLib.lib(stm32f10x_it.o)
                0x080074d0                ADC3_IRQHandler
 .text.FSMC_IRQHandler
                0x080074dc        0xc cortex/vexlib/easyCRuntime/easyCRuntimeLib.lib(stm32f10x_it.o)
                0x080074dc                FSMC_IRQHandler
 .text.SDIO_IRQHandler
                0x080074e8        0xc cortex/vexlib/easyCRuntime/easyCRuntimeLib.lib(stm32f10x_it.o)
                0x080074e8                SDIO_IRQHandler
 .text.TIM5_IRQHandler
                0x080074f4        0xc cortex/vexlib/easyCRuntime/easyCRuntimeLib.lib(stm32f10x_it.o)
                0x080074f4                TIM5_IRQHandler
 .text.SPI3_IRQHandler
                0x08007500        0xc cortex/vexlib/easyCRuntime/easyCRuntimeLib.lib(stm32f10x_it.o)
                0x08007500                SPI3_IRQHandler
 .text.UART4_IRQHandler
                0x0800750c        0xc cortex/vexlib/easyCRuntime/easyCRuntimeLib.lib(stm32f10x_it.o)
                0x0800750c                UART4_IRQHandler
 .text.UART5_IRQHandler
                0x08007518        0xc cortex/vexlib/easyCRuntime/easyCRuntimeLib.lib(stm32f10x_it.o)
                0x08007518                UART5_IRQHandler
 .text.TIM6_IRQHandler
                0x08007524        0xc cortex/vexlib/easyCRuntime/easyCRuntimeLib.lib(stm32f10x_it.o)
                0x08007524                TIM6_IRQHandler
 .text.TIM7_IRQHandler
                0x08007530        0xc cortex/vexlib/easyCRuntime/easyCRuntimeLib.lib(stm32f10x_it.o)
                0x08007530                TIM7_IRQHandler
 .text.DMA2_Channel1_IRQHandler
                0x0800753c        0xc cortex/vexlib/easyCRuntime/easyCRuntimeLib.lib(stm32f10x_it.o)
                0x0800753c                DMA2_Channel1_IRQHandler
 .text.DMA2_Channel2_IRQHandler
                0x08007548        0xc cortex/vexlib/easyCRuntime/easyCRuntimeLib.lib(stm32f10x_it.o)
                0x08007548                DMA2_Channel2_IRQHandler
 .text.DMA2_Channel3_IRQHandler
                0x08007554        0xc cortex/vexlib/easyCRuntime/easyCRuntimeLib.lib(stm32f10x_it.o)
                0x08007554                DMA2_Channel3_IRQHandler
 .text.DMA2_Channel4_5_IRQHandler
                0x08007560        0xc cortex/vexlib/easyCRuntime/easyCRuntimeLib.lib(stm32f10x_it.o)
                0x08007560                DMA2_Channel4_5_IRQHandler
 .text.GetKey   0x0800756c       0x5c cortex/vexlib/easyCRuntime/easyCRuntimeLib.lib(ddt_support.o)
                0x0800756c                GetKey
 .text.SendCharUart1
                0x080075c8       0xa8 cortex/vexlib/easyCRuntime/easyCRuntimeLib.lib(ddt_support.o)
                0x080075c8                SendCharUart1
 .text.Debug_Send
                0x08007670       0x58 cortex/vexlib/easyCRuntime/easyCRuntimeLib.lib(ddt_support.o)
                0x08007670                Debug_Send
 .text.Handle_Debug_Input
                0x080076c8      0x140 cortex/vexlib/easyCRuntime/easyCRuntimeLib.lib(ddt_support.o)
                0x080076c8                Handle_Debug_Input
 .text.Process_Debug_Stream
                0x08007808      0x460 cortex/vexlib/easyCRuntime/easyCRuntimeLib.lib(ddt_support.o)
                0x08007808                Process_Debug_Stream
 .text.ADC_Init
                0x08007c68       0xc8 cortex/vexlib/easyCRuntime/easyCRuntimeLib.lib(stm32f10x_adc.o)
                0x08007c68                ADC_Init
 .text.ADC_Cmd  0x08007d30       0x38 cortex/vexlib/easyCRuntime/easyCRuntimeLib.lib(stm32f10x_adc.o)
                0x08007d30                ADC_Cmd
 .text.ADC_DMACmd
                0x08007d68       0x38 cortex/vexlib/easyCRuntime/easyCRuntimeLib.lib(stm32f10x_adc.o)
                0x08007d68                ADC_DMACmd
 .text.ADC_ResetCalibration
                0x08007da0       0x20 cortex/vexlib/easyCRuntime/easyCRuntimeLib.lib(stm32f10x_adc.o)
                0x08007da0                ADC_ResetCalibration
 .text.ADC_GetResetCalibrationStatus
                0x08007dc0       0x38 cortex/vexlib/easyCRuntime/easyCRuntimeLib.lib(stm32f10x_adc.o)
                0x08007dc0                ADC_GetResetCalibrationStatus
 .text.ADC_StartCalibration
                0x08007df8       0x20 cortex/vexlib/easyCRuntime/easyCRuntimeLib.lib(stm32f10x_adc.o)
                0x08007df8                ADC_StartCalibration
 .text.ADC_GetCalibrationStatus
                0x08007e18       0x38 cortex/vexlib/easyCRuntime/easyCRuntimeLib.lib(stm32f10x_adc.o)
                0x08007e18                ADC_GetCalibrationStatus
 .text.ADC_SoftwareStartConvCmd
                0x08007e50       0x38 cortex/vexlib/easyCRuntime/easyCRuntimeLib.lib(stm32f10x_adc.o)
                0x08007e50                ADC_SoftwareStartConvCmd
 .text.ADC_RegularChannelConfig
                0x08007e88      0x1d8 cortex/vexlib/easyCRuntime/easyCRuntimeLib.lib(stm32f10x_adc.o)
                0x08007e88                ADC_RegularChannelConfig
 .text.DMA_DeInit
                0x08008060      0x260 cortex/vexlib/easyCRuntime/easyCRuntimeLib.lib(stm32f10x_dma.o)
                0x08008060                DMA_DeInit
 .text.DMA_Init
                0x080082c0       0x90 cortex/vexlib/easyCRuntime/easyCRuntimeLib.lib(stm32f10x_dma.o)
                0x080082c0                DMA_Init
 .text.DMA_Cmd  0x08008350       0x38 cortex/vexlib/easyCRuntime/easyCRuntimeLib.lib(stm32f10x_dma.o)
                0x08008350                DMA_Cmd
 .text.EXTI_GetITStatus
                0x08008388       0x5c cortex/vexlib/easyCRuntime/easyCRuntimeLib.lib(stm32f10x_exti.o)
                0x08008388                EXTI_GetITStatus
 .text.EXTI_ClearITPendingBit
                0x080083e4       0x20 cortex/vexlib/easyCRuntime/easyCRuntimeLib.lib(stm32f10x_exti.o)
                0x080083e4                EXTI_ClearITPendingBit
 .text.FLASH_SetLatency
                0x08008404       0x44 cortex/vexlib/easyCRuntime/easyCRuntimeLib.lib(stm32f10x_flash.o)
                0x08008404                FLASH_SetLatency
 .text.FLASH_PrefetchBufferCmd
                0x08008448       0x44 cortex/vexlib/easyCRuntime/easyCRuntimeLib.lib(stm32f10x_flash.o)
                0x08008448                FLASH_PrefetchBufferCmd
 .text.GPIO_Init
                0x0800848c      0x1c8 cortex/vexlib/easyCRuntime/easyCRuntimeLib.lib(stm32f10x_gpio.o)
                0x0800848c                GPIO_Init
 .text.GPIO_ReadInputDataBit
                0x08008654       0x3c cortex/vexlib/easyCRuntime/easyCRuntimeLib.lib(stm32f10x_gpio.o)
                0x08008654                GPIO_ReadInputDataBit
 .text.GPIO_ReadOutputDataBit
                0x08008690       0x3c cortex/vexlib/easyCRuntime/easyCRuntimeLib.lib(stm32f10x_gpio.o)
                0x08008690                GPIO_ReadOutputDataBit
 .text.GPIO_ReadOutputData
                0x080086cc       0x1c cortex/vexlib/easyCRuntime/easyCRuntimeLib.lib(stm32f10x_gpio.o)
                0x080086cc                GPIO_ReadOutputData
 .text.GPIO_SetBits
                0x080086e8       0x1c cortex/vexlib/easyCRuntime/easyCRuntimeLib.lib(stm32f10x_gpio.o)
                0x080086e8                GPIO_SetBits
 .text.GPIO_ResetBits
                0x08008704       0x1c cortex/vexlib/easyCRuntime/easyCRuntimeLib.lib(stm32f10x_gpio.o)
                0x08008704                GPIO_ResetBits
 .text.GPIO_WriteBit
                0x08008720       0x30 cortex/vexlib/easyCRuntime/easyCRuntimeLib.lib(stm32f10x_gpio.o)
                0x08008720                GPIO_WriteBit
 .text.GPIO_PinRemapConfig
                0x08008750      0x100 cortex/vexlib/easyCRuntime/easyCRuntimeLib.lib(stm32f10x_gpio.o)
                0x08008750                GPIO_PinRemapConfig
 .text.NVIC_PriorityGroupConfig
                0x08008850       0x28 cortex/vexlib/easyCRuntime/easyCRuntimeLib.lib(stm32f10x_nvic.o)
                0x08008850                NVIC_PriorityGroupConfig
 .text.NVIC_Init
                0x08008878      0x168 cortex/vexlib/easyCRuntime/easyCRuntimeLib.lib(stm32f10x_nvic.o)
                0x08008878                NVIC_Init
 .text.NVIC_SetVectorTable
                0x080089e0       0x30 cortex/vexlib/easyCRuntime/easyCRuntimeLib.lib(stm32f10x_nvic.o)
                0x080089e0                NVIC_SetVectorTable
 .text.NVIC_GenerateCoreReset
                0x08008a10       0x1c cortex/vexlib/easyCRuntime/easyCRuntimeLib.lib(stm32f10x_nvic.o)
                0x08008a10                NVIC_GenerateCoreReset
 .text.RCC_DeInit
                0x08008a2c       0x9c cortex/vexlib/easyCRuntime/easyCRuntimeLib.lib(stm32f10x_rcc.o)
                0x08008a2c                RCC_DeInit
 .text.RCC_HSEConfig
                0x08008ac8       0x8c cortex/vexlib/easyCRuntime/easyCRuntimeLib.lib(stm32f10x_rcc.o)
                0x08008ac8                RCC_HSEConfig
 .text.RCC_WaitForHSEStartUp
                0x08008b54       0x64 cortex/vexlib/easyCRuntime/easyCRuntimeLib.lib(stm32f10x_rcc.o)
                0x08008b54                RCC_WaitForHSEStartUp
 .text.RCC_PLLConfig
                0x08008bb8       0x4c cortex/vexlib/easyCRuntime/easyCRuntimeLib.lib(stm32f10x_rcc.o)
                0x08008bb8                RCC_PLLConfig
 .text.RCC_PLLCmd
                0x08008c04       0x20 cortex/vexlib/easyCRuntime/easyCRuntimeLib.lib(stm32f10x_rcc.o)
                0x08008c04                RCC_PLLCmd
 .text.RCC_SYSCLKConfig
                0x08008c24       0x44 cortex/vexlib/easyCRuntime/easyCRuntimeLib.lib(stm32f10x_rcc.o)
                0x08008c24                RCC_SYSCLKConfig
 .text.RCC_GetSYSCLKSource
                0x08008c68       0x1c cortex/vexlib/easyCRuntime/easyCRuntimeLib.lib(stm32f10x_rcc.o)
                0x08008c68                RCC_GetSYSCLKSource
 .text.RCC_HCLKConfig
                0x08008c84       0x44 cortex/vexlib/easyCRuntime/easyCRuntimeLib.lib(stm32f10x_rcc.o)
                0x08008c84                RCC_HCLKConfig
 .text.RCC_PCLK1Config
                0x08008cc8       0x44 cortex/vexlib/easyCRuntime/easyCRuntimeLib.lib(stm32f10x_rcc.o)
                0x08008cc8                RCC_PCLK1Config
 .text.RCC_PCLK2Config
                0x08008d0c       0x48 cortex/vexlib/easyCRuntime/easyCRuntimeLib.lib(stm32f10x_rcc.o)
                0x08008d0c                RCC_PCLK2Config
 .text.RCC_ADCCLKConfig
                0x08008d54       0x44 cortex/vexlib/easyCRuntime/easyCRuntimeLib.lib(stm32f10x_rcc.o)
                0x08008d54                RCC_ADCCLKConfig
 .text.RCC_GetClocksFreq
                0x08008d98      0x1c8 cortex/vexlib/easyCRuntime/easyCRuntimeLib.lib(stm32f10x_rcc.o)
                0x08008d98                RCC_GetClocksFreq
 .text.RCC_AHBPeriphClockCmd
                0x08008f60       0x58 cortex/vexlib/easyCRuntime/easyCRuntimeLib.lib(stm32f10x_rcc.o)
                0x08008f60                RCC_AHBPeriphClockCmd
 .text.RCC_APB2PeriphClockCmd
                0x08008fb8       0x58 cortex/vexlib/easyCRuntime/easyCRuntimeLib.lib(stm32f10x_rcc.o)
                0x08008fb8                RCC_APB2PeriphClockCmd
 .text.RCC_APB1PeriphClockCmd
                0x08009010       0x58 cortex/vexlib/easyCRuntime/easyCRuntimeLib.lib(stm32f10x_rcc.o)
                0x08009010                RCC_APB1PeriphClockCmd
 .text.RCC_GetFlagStatus
                0x08009068       0x90 cortex/vexlib/easyCRuntime/easyCRuntimeLib.lib(stm32f10x_rcc.o)
                0x08009068                RCC_GetFlagStatus
 .text.SPI_Init
                0x080090f8       0xa8 cortex/vexlib/easyCRuntime/easyCRuntimeLib.lib(stm32f10x_spi.o)
                0x080090f8                SPI_Init
 .text.SPI_Cmd  0x080091a0       0x50 cortex/vexlib/easyCRuntime/easyCRuntimeLib.lib(stm32f10x_spi.o)
                0x080091a0                SPI_Cmd
 .text.SPI_I2S_SendData
                0x080091f0       0x1c cortex/vexlib/easyCRuntime/easyCRuntimeLib.lib(stm32f10x_spi.o)
                0x080091f0                SPI_I2S_SendData
 .text.SPI_I2S_ReceiveData
                0x0800920c       0x1c cortex/vexlib/easyCRuntime/easyCRuntimeLib.lib(stm32f10x_spi.o)
                0x0800920c                SPI_I2S_ReceiveData
 .text.SPI_I2S_GetFlagStatus
                0x08009228       0x40 cortex/vexlib/easyCRuntime/easyCRuntimeLib.lib(stm32f10x_spi.o)
                0x08009228                SPI_I2S_GetFlagStatus
 .text.SysTick_SetReload
                0x08009268       0x20 cortex/vexlib/easyCRuntime/easyCRuntimeLib.lib(stm32f10x_systick.o)
                0x08009268                SysTick_SetReload
 .text.SysTick_CounterCmd
                0x08009288       0x64 cortex/vexlib/easyCRuntime/easyCRuntimeLib.lib(stm32f10x_systick.o)
                0x08009288                SysTick_CounterCmd
 .text.SysTick_ITConfig
                0x080092ec       0x4c cortex/vexlib/easyCRuntime/easyCRuntimeLib.lib(stm32f10x_systick.o)
                0x080092ec                SysTick_ITConfig
 .text.TIM_TimeBaseInit
                0x08009338       0x84 cortex/vexlib/easyCRuntime/easyCRuntimeLib.lib(stm32f10x_tim.o)
                0x08009338                TIM_TimeBaseInit
 .text.TIM_Cmd  0x080093bc       0x50 cortex/vexlib/easyCRuntime/easyCRuntimeLib.lib(stm32f10x_tim.o)
                0x080093bc                TIM_Cmd
 .text.TIM_ITConfig
                0x0800940c       0x4c cortex/vexlib/easyCRuntime/easyCRuntimeLib.lib(stm32f10x_tim.o)
                0x0800940c                TIM_ITConfig
 .text.TIM_ARRPreloadConfig
                0x08009458       0x50 cortex/vexlib/easyCRuntime/easyCRuntimeLib.lib(stm32f10x_tim.o)
                0x08009458                TIM_ARRPreloadConfig
 .text.TIM_OC1PreloadConfig
                0x080094a8       0x3c cortex/vexlib/easyCRuntime/easyCRuntimeLib.lib(stm32f10x_tim.o)
                0x080094a8                TIM_OC1PreloadConfig
 .text.TIM_GetCapture3
                0x080094e4       0x1c cortex/vexlib/easyCRuntime/easyCRuntimeLib.lib(stm32f10x_tim.o)
                0x080094e4                TIM_GetCapture3
 .text.TIM_GetITStatus
                0x08009500       0x64 cortex/vexlib/easyCRuntime/easyCRuntimeLib.lib(stm32f10x_tim.o)
                0x08009500                TIM_GetITStatus
 .text.TIM_ClearITPendingBit
                0x08009564       0x24 cortex/vexlib/easyCRuntime/easyCRuntimeLib.lib(stm32f10x_tim.o)
                0x08009564                TIM_ClearITPendingBit
 .text.USART_Init
                0x08009588      0x180 cortex/vexlib/easyCRuntime/easyCRuntimeLib.lib(stm32f10x_usart.o)
                0x08009588                USART_Init
 .text.USART_Cmd
                0x08009708       0x50 cortex/vexlib/easyCRuntime/easyCRuntimeLib.lib(stm32f10x_usart.o)
                0x08009708                USART_Cmd
 .text.USART_ITConfig
                0x08009758       0xac cortex/vexlib/easyCRuntime/easyCRuntimeLib.lib(stm32f10x_usart.o)
                0x08009758                USART_ITConfig
 .text.USART_SendData
                0x08009804       0x30 cortex/vexlib/easyCRuntime/easyCRuntimeLib.lib(stm32f10x_usart.o)
                0x08009804                USART_SendData
 .text.USART_ReceiveData
                0x08009834       0x2c cortex/vexlib/easyCRuntime/easyCRuntimeLib.lib(stm32f10x_usart.o)
                0x08009834                USART_ReceiveData
 .text.USART_GetFlagStatus
                0x08009860       0x40 cortex/vexlib/easyCRuntime/easyCRuntimeLib.lib(stm32f10x_usart.o)
                0x08009860                USART_GetFlagStatus
 .text._write   0x080098a0       0x20 cortex/vexlib/Link/STM32x_io_putchar_thumb.a(syscalls.o)
                0x080098a0                _write
 *(.rodata)
 .rodata        0x080098c0      0x170 cortex/vexlib/easyCRuntime/easyCRuntimeLib.lib(Clock.o)
 .rodata        0x08009a30       0x30 cortex/vexlib/easyCRuntime/easyCRuntimeLib.lib(Comm.o)
 .rodata        0x08009a60       0x30 cortex/vexlib/easyCRuntime/easyCRuntimeLib.lib(InputOutput.o)
 .rodata        0x08009a90       0xcc cortex/vexlib/easyCRuntime/easyCRuntimeLib.lib(Motors.o)
 .rodata        0x08009b5c      0x118 cortex/vexlib/easyCRuntime/easyCRuntimeLib.lib(ddt_support.o)
 .rodata        0x08009c74       0x14 cortex/vexlib/easyCRuntime/easyCRuntimeLib.lib(stm32f10x_rcc.o)
 .rodata        0x08009c88      0x184 cortex/vexlib/Link/e_stdio_thumb.a(_sp_vfprintf.o)
 .rodata        0x08009e0c       0x18 cortex/vexlib/Link/e_stdio_thumb.a(small_dtoa.o)
 *fill*         0x08009e24        0x4 00
 .rodata        0x08009e28      0x128 cortex/vexlib/Link/e_stdio_thumb.a(small_mprec.o)
                0x08009e28                __small_mprec_tens
                0x08009f28                __small_mprec_tinytens
                0x08009f00                __small_mprec_bigtens
 *(.rodata*)
 .rodata.str1.4
                0x08009f50       0x6b cortex/vexlib/Startup/Startup.o
                                 0x6c (size before relaxing)
 *fill*         0x08009fbb        0x1 00
 .rodata.str1.4
                0x08009fbc       0x5b cortex/vexlib/Link/e_stdio_thumb.a(_sp_vfprintf.o)
                                 0x5c (size before relaxing)
 *fill*         0x0800a017        0x1 00
 .rodata.str1.4
                0x0800a018        0x9 cortex/vexlib/Link/e_stdio_thumb.a(small_dtoa.o)
                                 0x14 (size before relaxing)
 *fill*         0x0800a021        0x3 00
 .rodata.str1.4
                0x0800a024        0x4 c:/easyc/#tools/arm-gcc/bin/../lib/gcc/arm-none-eabi/4.3.2/../../../../arm-none-eabi/lib/thumb2/libc.a(lib_a-impure.o)
 *(.glue_7)
 .glue_7        0x0800a028        0x0 cortex/vexlib/Startup/Startup.o
 .glue_7        0x0800a028        0x0 C:/Users\Mike\AppData\Roaming\Intelitek\easyC V4 for Cortex\Temp\Main.o
 .glue_7        0x0800a028        0x0 C:/Users\Mike\AppData\Roaming\Intelitek\easyC V4 for Cortex\Temp\MainIO.o
 .glue_7        0x0800a028        0x0 C:/Users\Mike\AppData\Roaming\Intelitek\easyC V4 for Cortex\Temp\Globals.o
 .glue_7        0x0800a028        0x0 C:/Users\Mike\AppData\Roaming\Intelitek\easyC V4 for Cortex\Temp\Initialize.o
 .glue_7        0x0800a028        0x0 C:/Users\Mike\AppData\Roaming\Intelitek\easyC V4 for Cortex\Temp\Autonomous.o
 .glue_7        0x0800a028        0x0 C:/Users\Mike\AppData\Roaming\Intelitek\easyC V4 for Cortex\Temp\OperatorControl.o
 .glue_7        0x0800a028        0x0 cortex/vexlib/easyCRuntime/easyCRuntimeLib.lib(easyCRuntime.o)
 .glue_7        0x0800a028        0x0 cortex/vexlib/easyCRuntime/easyCRuntimeLib.lib(Clock.o)
 .glue_7        0x0800a028        0x0 cortex/vexlib/easyCRuntime/easyCRuntimeLib.lib(Comm.o)
 .glue_7        0x0800a028        0x0 cortex/vexlib/easyCRuntime/easyCRuntimeLib.lib(Config.o)
 .glue_7        0x0800a028        0x0 cortex/vexlib/easyCRuntime/easyCRuntimeLib.lib(InputOutput.o)
 .glue_7        0x0800a028        0x0 cortex/vexlib/easyCRuntime/easyCRuntimeLib.lib(Interrupts.o)
 .glue_7        0x0800a028        0x0 cortex/vexlib/easyCRuntime/easyCRuntimeLib.lib(LCD.o)
 .glue_7        0x0800a028        0x0 cortex/vexlib/easyCRuntime/easyCRuntimeLib.lib(Motors.o)
 .glue_7        0x0800a028        0x0 cortex/vexlib/easyCRuntime/easyCRuntimeLib.lib(OI.o)
 .glue_7        0x0800a028        0x0 cortex/vexlib/easyCRuntime/easyCRuntimeLib.lib(Print.o)
 .glue_7        0x0800a028        0x0 cortex/vexlib/easyCRuntime/easyCRuntimeLib.lib(stm32f10x_it.o)
 .glue_7        0x0800a028        0x0 cortex/vexlib/easyCRuntime/easyCRuntimeLib.lib(ddt_support.o)
 .glue_7        0x0800a028        0x0 cortex/vexlib/easyCRuntime/easyCRuntimeLib.lib(stm32f10x_adc.o)
 .glue_7        0x0800a028        0x0 cortex/vexlib/easyCRuntime/easyCRuntimeLib.lib(stm32f10x_dma.o)
 .glue_7        0x0800a028        0x0 cortex/vexlib/easyCRuntime/easyCRuntimeLib.lib(stm32f10x_exti.o)
 .glue_7        0x0800a028        0x0 cortex/vexlib/easyCRuntime/easyCRuntimeLib.lib(stm32f10x_flash.o)
 .glue_7        0x0800a028        0x0 cortex/vexlib/easyCRuntime/easyCRuntimeLib.lib(stm32f10x_gpio.o)
 .glue_7        0x0800a028        0x0 cortex/vexlib/easyCRuntime/easyCRuntimeLib.lib(stm32f10x_nvic.o)
 .glue_7        0x0800a028        0x0 cortex/vexlib/easyCRuntime/easyCRuntimeLib.lib(stm32f10x_rcc.o)
 .glue_7        0x0800a028        0x0 cortex/vexlib/easyCRuntime/easyCRuntimeLib.lib(stm32f10x_spi.o)
 .glue_7        0x0800a028        0x0 cortex/vexlib/easyCRuntime/easyCRuntimeLib.lib(stm32f10x_systick.o)
 .glue_7        0x0800a028        0x0 cortex/vexlib/easyCRuntime/easyCRuntimeLib.lib(stm32f10x_tim.o)
 .glue_7        0x0800a028        0x0 cortex/vexlib/easyCRuntime/easyCRuntimeLib.lib(stm32f10x_usart.o)
 .glue_7        0x0800a028        0x0 cortex/vexlib/easyCRuntime/easyCRuntimeLib.lib(cortexm3_macro.o)
 .glue_7        0x0800a028        0x0 cortex/vexlib/Link/STM32x_io_putchar_thumb.a(syscalls.o)
 .glue_7        0x0800a028        0x0 cortex/vexlib/Link/e_stdio_thumb.a(_sp_printf.o)
 .glue_7        0x0800a028        0x0 cortex/vexlib/Link/e_stdio_thumb.a(_sp_vfprintf.o)
 .glue_7        0x0800a028        0x0 cortex/vexlib/Link/e_stdio_thumb.a(_sp_puts.o)
 .glue_7        0x0800a028        0x0 cortex/vexlib/Link/e_stdio_thumb.a(_sp_sprintf.o)
 .glue_7        0x0800a028        0x0 cortex/vexlib/Link/e_stdio_thumb.a(small_dtoa.o)
 .glue_7        0x0800a028        0x0 cortex/vexlib/Link/e_stdio_thumb.a(small_wcsrtombs.o)
 .glue_7        0x0800a028        0x0 cortex/vexlib/Link/e_stdio_thumb.a(small_wcrtomb.o)
 .glue_7        0x0800a028        0x0 cortex/vexlib/Link/e_stdio_thumb.a(small_mprec.o)
 .glue_7        0x0800a028        0x0 c:/easyc/#tools/arm-gcc/bin/../lib/gcc/arm-none-eabi/4.3.2/../../../../arm-none-eabi/lib/thumb2/libc.a(lib_a-abort.o)
 .glue_7        0x0800a028        0x0 c:/easyc/#tools/arm-gcc/bin/../lib/gcc/arm-none-eabi/4.3.2/../../../../arm-none-eabi/lib/thumb2/libc.a(lib_a-errno.o)
 .glue_7        0x0800a028        0x0 c:/easyc/#tools/arm-gcc/bin/../lib/gcc/arm-none-eabi/4.3.2/../../../../arm-none-eabi/lib/thumb2/libc.a(lib_a-impure.o)
 .glue_7        0x0800a028        0x0 c:/easyc/#tools/arm-gcc/bin/../lib/gcc/arm-none-eabi/4.3.2/../../../../arm-none-eabi/lib/thumb2/libc.a(lib_a-memchr.o)
 .glue_7        0x0800a028        0x0 c:/easyc/#tools/arm-gcc/bin/../lib/gcc/arm-none-eabi/4.3.2/../../../../arm-none-eabi/lib/thumb2/libc.a(lib_a-memcpy.o)
 .glue_7        0x0800a028        0x0 c:/easyc/#tools/arm-gcc/bin/../lib/gcc/arm-none-eabi/4.3.2/../../../../arm-none-eabi/lib/thumb2/libc.a(lib_a-memset.o)
 .glue_7        0x0800a028        0x0 c:/easyc/#tools/arm-gcc/bin/../lib/gcc/arm-none-eabi/4.3.2/../../../../arm-none-eabi/lib/thumb2/libc.a(lib_a-rand.o)
 .glue_7        0x0800a028        0x0 c:/easyc/#tools/arm-gcc/bin/../lib/gcc/arm-none-eabi/4.3.2/../../../../arm-none-eabi/lib/thumb2/libc.a(lib_a-s_isinfd.o)
 .glue_7        0x0800a028        0x0 c:/easyc/#tools/arm-gcc/bin/../lib/gcc/arm-none-eabi/4.3.2/../../../../arm-none-eabi/lib/thumb2/libc.a(lib_a-s_isnand.o)
 .glue_7        0x0800a028        0x0 c:/easyc/#tools/arm-gcc/bin/../lib/gcc/arm-none-eabi/4.3.2/../../../../arm-none-eabi/lib/thumb2/libc.a(lib_a-signal.o)
 .glue_7        0x0800a028        0x0 c:/easyc/#tools/arm-gcc/bin/../lib/gcc/arm-none-eabi/4.3.2/../../../../arm-none-eabi/lib/thumb2/libc.a(lib_a-signalr.o)
 .glue_7        0x0800a028        0x0 c:/easyc/#tools/arm-gcc/bin/../lib/gcc/arm-none-eabi/4.3.2/../../../../arm-none-eabi/lib/thumb2/libc.a(lib_a-strlen.o)
 .glue_7        0x0800a028        0x0 c:/easyc/#tools/arm-gcc/bin/../lib/gcc/arm-none-eabi/4.3.2/../../../../arm-none-eabi/lib/thumb2/libc.a(lib_a-vsprintf.o)
 .glue_7        0x0800a028        0x0 c:/easyc/#tools/arm-gcc/bin/../lib/gcc/arm-none-eabi/4.3.2/../../../../arm-none-eabi/lib/thumb2/libc.a(lib_a-malloc.o)
 .glue_7        0x0800a028        0x0 c:/easyc/#tools/arm-gcc/bin/../lib/gcc/arm-none-eabi/4.3.2/../../../../arm-none-eabi/lib/thumb2/libc.a(lib_a-mallocr.o)
 .glue_7        0x0800a028        0x0 c:/easyc/#tools/arm-gcc/bin/../lib/gcc/arm-none-eabi/4.3.2/../../../../arm-none-eabi/lib/thumb2/libc.a(lib_a-mlock.o)
 .glue_7        0x0800a028        0x0 c:/easyc/#tools/arm-gcc/bin/../lib/gcc/arm-none-eabi/4.3.2/../../../../arm-none-eabi/lib/thumb2/libc.a(lib_a-reent.o)
 .glue_7        0x0800a028        0x0 c:/easyc/#tools/arm-gcc/bin/../lib/gcc/arm-none-eabi/4.3.2/../../../../arm-none-eabi/lib/thumb2/libc.a(lib_a-sbrkr.o)
 .glue_7        0x0800a028        0x0 c:/easyc/#tools/arm-gcc/bin/../lib/gcc/arm-none-eabi/4.3.2/../../../../arm-none-eabi/lib/thumb2/libc.a(lib_a-freer.o)
 .glue_7        0x0800a028        0x0 c:/easyc/#tools/arm-gcc/bin/../lib/gcc/arm-none-eabi/4.3.2/thumb2/libgcc.a(_udivsi3.o)
 .glue_7        0x0800a028        0x0 c:/easyc/#tools/arm-gcc/bin/../lib/gcc/arm-none-eabi/4.3.2/thumb2/libgcc.a(_divsi3.o)
 .glue_7        0x0800a028        0x0 c:/easyc/#tools/arm-gcc/bin/../lib/gcc/arm-none-eabi/4.3.2/thumb2/libgcc.a(_dvmd_tls.o)
 .glue_7        0x0800a028        0x0 c:/easyc/#tools/arm-gcc/bin/../lib/gcc/arm-none-eabi/4.3.2/thumb2/libgcc.a(_arm_addsubdf3.o)
 .glue_7        0x0800a028        0x0 c:/easyc/#tools/arm-gcc/bin/../lib/gcc/arm-none-eabi/4.3.2/thumb2/libgcc.a(_arm_muldivdf3.o)
 .glue_7        0x0800a028        0x0 c:/easyc/#tools/arm-gcc/bin/../lib/gcc/arm-none-eabi/4.3.2/thumb2/libgcc.a(_arm_cmpdf2.o)
 .glue_7        0x0800a028        0x0 c:/easyc/#tools/arm-gcc/bin/../lib/gcc/arm-none-eabi/4.3.2/thumb2/libgcc.a(_arm_fixdfsi.o)
 .glue_7        0x0800a028        0x0 c:/easyc/#tools/arm-gcc/bin/../lib/gcc/arm-none-eabi/4.3.2/thumb2/libgcc.a(_arm_fixunsdfsi.o)
 .glue_7        0x0800a028        0x0 c:/easyc/#tools/arm-gcc/bin/../lib/gcc/arm-none-eabi/4.3.2/thumb2/libgcc.a(_arm_truncdfsf2.o)
 .glue_7        0x0800a028        0x0 c:/easyc/#tools/arm-gcc/bin/../lib/gcc/arm-none-eabi/4.3.2/thumb2/libgcc.a(_arm_addsubsf3.o)
 .glue_7        0x0800a028        0x0 c:/easyc/#tools/arm-gcc/bin/../lib/gcc/arm-none-eabi/4.3.2/thumb2/libgcc.a(_arm_muldivsf3.o)
 .glue_7        0x0800a028        0x0 c:/easyc/#tools/arm-gcc/bin/../lib/gcc/arm-none-eabi/4.3.2/thumb2/libgcc.a(_arm_cmpsf2.o)
 .glue_7        0x0800a028        0x0 c:/easyc/#tools/arm-gcc/bin/../lib/gcc/arm-none-eabi/4.3.2/thumb2/libgcc.a(_arm_fixunssfsi.o)
 *(.glue_7t)
 .glue_7t       0x0800a028        0x0 cortex/vexlib/Startup/Startup.o
 .glue_7t       0x0800a028        0x0 C:/Users\Mike\AppData\Roaming\Intelitek\easyC V4 for Cortex\Temp\Main.o
 .glue_7t       0x0800a028        0x0 C:/Users\Mike\AppData\Roaming\Intelitek\easyC V4 for Cortex\Temp\MainIO.o
 .glue_7t       0x0800a028        0x0 C:/Users\Mike\AppData\Roaming\Intelitek\easyC V4 for Cortex\Temp\Globals.o
 .glue_7t       0x0800a028        0x0 C:/Users\Mike\AppData\Roaming\Intelitek\easyC V4 for Cortex\Temp\Initialize.o
 .glue_7t       0x0800a028        0x0 C:/Users\Mike\AppData\Roaming\Intelitek\easyC V4 for Cortex\Temp\Autonomous.o
 .glue_7t       0x0800a028        0x0 C:/Users\Mike\AppData\Roaming\Intelitek\easyC V4 for Cortex\Temp\OperatorControl.o
 .glue_7t       0x0800a028        0x0 cortex/vexlib/easyCRuntime/easyCRuntimeLib.lib(easyCRuntime.o)
 .glue_7t       0x0800a028        0x0 cortex/vexlib/easyCRuntime/easyCRuntimeLib.lib(Clock.o)
 .glue_7t       0x0800a028        0x0 cortex/vexlib/easyCRuntime/easyCRuntimeLib.lib(Comm.o)
 .glue_7t       0x0800a028        0x0 cortex/vexlib/easyCRuntime/easyCRuntimeLib.lib(Config.o)
 .glue_7t       0x0800a028        0x0 cortex/vexlib/easyCRuntime/easyCRuntimeLib.lib(InputOutput.o)
 .glue_7t       0x0800a028        0x0 cortex/vexlib/easyCRuntime/easyCRuntimeLib.lib(Interrupts.o)
 .glue_7t       0x0800a028        0x0 cortex/vexlib/easyCRuntime/easyCRuntimeLib.lib(LCD.o)
 .glue_7t       0x0800a028        0x0 cortex/vexlib/easyCRuntime/easyCRuntimeLib.lib(Motors.o)
 .glue_7t       0x0800a028        0x0 cortex/vexlib/easyCRuntime/easyCRuntimeLib.lib(OI.o)
 .glue_7t       0x0800a028        0x0 cortex/vexlib/easyCRuntime/easyCRuntimeLib.lib(Print.o)
 .glue_7t       0x0800a028        0x0 cortex/vexlib/easyCRuntime/easyCRuntimeLib.lib(stm32f10x_it.o)
 .glue_7t       0x0800a028        0x0 cortex/vexlib/easyCRuntime/easyCRuntimeLib.lib(ddt_support.o)
 .glue_7t       0x0800a028        0x0 cortex/vexlib/easyCRuntime/easyCRuntimeLib.lib(stm32f10x_adc.o)
 .glue_7t       0x0800a028        0x0 cortex/vexlib/easyCRuntime/easyCRuntimeLib.lib(stm32f10x_dma.o)
 .glue_7t       0x0800a028        0x0 cortex/vexlib/easyCRuntime/easyCRuntimeLib.lib(stm32f10x_exti.o)
 .glue_7t       0x0800a028        0x0 cortex/vexlib/easyCRuntime/easyCRuntimeLib.lib(stm32f10x_flash.o)
 .glue_7t       0x0800a028        0x0 cortex/vexlib/easyCRuntime/easyCRuntimeLib.lib(stm32f10x_gpio.o)
 .glue_7t       0x0800a028        0x0 cortex/vexlib/easyCRuntime/easyCRuntimeLib.lib(stm32f10x_nvic.o)
 .glue_7t       0x0800a028        0x0 cortex/vexlib/easyCRuntime/easyCRuntimeLib.lib(stm32f10x_rcc.o)
 .glue_7t       0x0800a028        0x0 cortex/vexlib/easyCRuntime/easyCRuntimeLib.lib(stm32f10x_spi.o)
 .glue_7t       0x0800a028        0x0 cortex/vexlib/easyCRuntime/easyCRuntimeLib.lib(stm32f10x_systick.o)
 .glue_7t       0x0800a028        0x0 cortex/vexlib/easyCRuntime/easyCRuntimeLib.lib(stm32f10x_tim.o)
 .glue_7t       0x0800a028        0x0 cortex/vexlib/easyCRuntime/easyCRuntimeLib.lib(stm32f10x_usart.o)
 .glue_7t       0x0800a028        0x0 cortex/vexlib/easyCRuntime/easyCRuntimeLib.lib(cortexm3_macro.o)
 .glue_7t       0x0800a028        0x0 cortex/vexlib/Link/STM32x_io_putchar_thumb.a(syscalls.o)
 .glue_7t       0x0800a028        0x0 cortex/vexlib/Link/e_stdio_thumb.a(_sp_printf.o)
 .glue_7t       0x0800a028        0x0 cortex/vexlib/Link/e_stdio_thumb.a(_sp_vfprintf.o)
 .glue_7t       0x0800a028        0x0 cortex/vexlib/Link/e_stdio_thumb.a(_sp_puts.o)
 .glue_7t       0x0800a028        0x0 cortex/vexlib/Link/e_stdio_thumb.a(_sp_sprintf.o)
 .glue_7t       0x0800a028        0x0 cortex/vexlib/Link/e_stdio_thumb.a(small_dtoa.o)
 .glue_7t       0x0800a028        0x0 cortex/vexlib/Link/e_stdio_thumb.a(small_wcsrtombs.o)
 .glue_7t       0x0800a028        0x0 cortex/vexlib/Link/e_stdio_thumb.a(small_wcrtomb.o)
 .glue_7t       0x0800a028        0x0 cortex/vexlib/Link/e_stdio_thumb.a(small_mprec.o)
 .glue_7t       0x0800a028        0x0 c:/easyc/#tools/arm-gcc/bin/../lib/gcc/arm-none-eabi/4.3.2/../../../../arm-none-eabi/lib/thumb2/libc.a(lib_a-abort.o)
 .glue_7t       0x0800a028        0x0 c:/easyc/#tools/arm-gcc/bin/../lib/gcc/arm-none-eabi/4.3.2/../../../../arm-none-eabi/lib/thumb2/libc.a(lib_a-errno.o)
 .glue_7t       0x0800a028        0x0 c:/easyc/#tools/arm-gcc/bin/../lib/gcc/arm-none-eabi/4.3.2/../../../../arm-none-eabi/lib/thumb2/libc.a(lib_a-impure.o)
 .glue_7t       0x0800a028        0x0 c:/easyc/#tools/arm-gcc/bin/../lib/gcc/arm-none-eabi/4.3.2/../../../../arm-none-eabi/lib/thumb2/libc.a(lib_a-memchr.o)
 .glue_7t       0x0800a028        0x0 c:/easyc/#tools/arm-gcc/bin/../lib/gcc/arm-none-eabi/4.3.2/../../../../arm-none-eabi/lib/thumb2/libc.a(lib_a-memcpy.o)
 .glue_7t       0x0800a028        0x0 c:/easyc/#tools/arm-gcc/bin/../lib/gcc/arm-none-eabi/4.3.2/../../../../arm-none-eabi/lib/thumb2/libc.a(lib_a-memset.o)
 .glue_7t       0x0800a028        0x0 c:/easyc/#tools/arm-gcc/bin/../lib/gcc/arm-none-eabi/4.3.2/../../../../arm-none-eabi/lib/thumb2/libc.a(lib_a-rand.o)
 .glue_7t       0x0800a028        0x0 c:/easyc/#tools/arm-gcc/bin/../lib/gcc/arm-none-eabi/4.3.2/../../../../arm-none-eabi/lib/thumb2/libc.a(lib_a-s_isinfd.o)
 .glue_7t       0x0800a028        0x0 c:/easyc/#tools/arm-gcc/bin/../lib/gcc/arm-none-eabi/4.3.2/../../../../arm-none-eabi/lib/thumb2/libc.a(lib_a-s_isnand.o)
 .glue_7t       0x0800a028        0x0 c:/easyc/#tools/arm-gcc/bin/../lib/gcc/arm-none-eabi/4.3.2/../../../../arm-none-eabi/lib/thumb2/libc.a(lib_a-signal.o)
 .glue_7t       0x0800a028        0x0 c:/easyc/#tools/arm-gcc/bin/../lib/gcc/arm-none-eabi/4.3.2/../../../../arm-none-eabi/lib/thumb2/libc.a(lib_a-signalr.o)
 .glue_7t       0x0800a028        0x0 c:/easyc/#tools/arm-gcc/bin/../lib/gcc/arm-none-eabi/4.3.2/../../../../arm-none-eabi/lib/thumb2/libc.a(lib_a-strlen.o)
 .glue_7t       0x0800a028        0x0 c:/easyc/#tools/arm-gcc/bin/../lib/gcc/arm-none-eabi/4.3.2/../../../../arm-none-eabi/lib/thumb2/libc.a(lib_a-vsprintf.o)
 .glue_7t       0x0800a028        0x0 c:/easyc/#tools/arm-gcc/bin/../lib/gcc/arm-none-eabi/4.3.2/../../../../arm-none-eabi/lib/thumb2/libc.a(lib_a-malloc.o)
 .glue_7t       0x0800a028        0x0 c:/easyc/#tools/arm-gcc/bin/../lib/gcc/arm-none-eabi/4.3.2/../../../../arm-none-eabi/lib/thumb2/libc.a(lib_a-mallocr.o)
 .glue_7t       0x0800a028        0x0 c:/easyc/#tools/arm-gcc/bin/../lib/gcc/arm-none-eabi/4.3.2/../../../../arm-none-eabi/lib/thumb2/libc.a(lib_a-mlock.o)
 .glue_7t       0x0800a028        0x0 c:/easyc/#tools/arm-gcc/bin/../lib/gcc/arm-none-eabi/4.3.2/../../../../arm-none-eabi/lib/thumb2/libc.a(lib_a-reent.o)
 .glue_7t       0x0800a028        0x0 c:/easyc/#tools/arm-gcc/bin/../lib/gcc/arm-none-eabi/4.3.2/../../../../arm-none-eabi/lib/thumb2/libc.a(lib_a-sbrkr.o)
 .glue_7t       0x0800a028        0x0 c:/easyc/#tools/arm-gcc/bin/../lib/gcc/arm-none-eabi/4.3.2/../../../../arm-none-eabi/lib/thumb2/libc.a(lib_a-freer.o)
 .glue_7t       0x0800a028        0x0 c:/easyc/#tools/arm-gcc/bin/../lib/gcc/arm-none-eabi/4.3.2/thumb2/libgcc.a(_udivsi3.o)
 .glue_7t       0x0800a028        0x0 c:/easyc/#tools/arm-gcc/bin/../lib/gcc/arm-none-eabi/4.3.2/thumb2/libgcc.a(_divsi3.o)
 .glue_7t       0x0800a028        0x0 c:/easyc/#tools/arm-gcc/bin/../lib/gcc/arm-none-eabi/4.3.2/thumb2/libgcc.a(_dvmd_tls.o)
 .glue_7t       0x0800a028        0x0 c:/easyc/#tools/arm-gcc/bin/../lib/gcc/arm-none-eabi/4.3.2/thumb2/libgcc.a(_arm_addsubdf3.o)
 .glue_7t       0x0800a028        0x0 c:/easyc/#tools/arm-gcc/bin/../lib/gcc/arm-none-eabi/4.3.2/thumb2/libgcc.a(_arm_muldivdf3.o)
 .glue_7t       0x0800a028        0x0 c:/easyc/#tools/arm-gcc/bin/../lib/gcc/arm-none-eabi/4.3.2/thumb2/libgcc.a(_arm_cmpdf2.o)
 .glue_7t       0x0800a028        0x0 c:/easyc/#tools/arm-gcc/bin/../lib/gcc/arm-none-eabi/4.3.2/thumb2/libgcc.a(_arm_fixdfsi.o)
 .glue_7t       0x0800a028        0x0 c:/easyc/#tools/arm-gcc/bin/../lib/gcc/arm-none-eabi/4.3.2/thumb2/libgcc.a(_arm_fixunsdfsi.o)
 .glue_7t       0x0800a028        0x0 c:/easyc/#tools/arm-gcc/bin/../lib/gcc/arm-none-eabi/4.3.2/thumb2/libgcc.a(_arm_truncdfsf2.o)
 .glue_7t       0x0800a028        0x0 c:/easyc/#tools/arm-gcc/bin/../lib/gcc/arm-none-eabi/4.3.2/thumb2/libgcc.a(_arm_addsubsf3.o)
 .glue_7t       0x0800a028        0x0 c:/easyc/#tools/arm-gcc/bin/../lib/gcc/arm-none-eabi/4.3.2/thumb2/libgcc.a(_arm_muldivsf3.o)
 .glue_7t       0x0800a028        0x0 c:/easyc/#tools/arm-gcc/bin/../lib/gcc/arm-none-eabi/4.3.2/thumb2/libgcc.a(_arm_cmpsf2.o)
 .glue_7t       0x0800a028        0x0 c:/easyc/#tools/arm-gcc/bin/../lib/gcc/arm-none-eabi/4.3.2/thumb2/libgcc.a(_arm_fixunssfsi.o)
                0x0800a028                . = ALIGN (0x4)
                0x0800a028                _etext = .
                0x0800a028                _sidata = _etext

.vfp11_veneer   0x20000000        0x0
 .vfp11_veneer  0x20000000        0x0 cortex/vexlib/Startup/Startup.o
 .vfp11_veneer  0x20000000        0x0 C:/Users\Mike\AppData\Roaming\Intelitek\easyC V4 for Cortex\Temp\Main.o
 .vfp11_veneer  0x20000000        0x0 C:/Users\Mike\AppData\Roaming\Intelitek\easyC V4 for Cortex\Temp\MainIO.o
 .vfp11_veneer  0x20000000        0x0 C:/Users\Mike\AppData\Roaming\Intelitek\easyC V4 for Cortex\Temp\Globals.o
 .vfp11_veneer  0x20000000        0x0 C:/Users\Mike\AppData\Roaming\Intelitek\easyC V4 for Cortex\Temp\Initialize.o
 .vfp11_veneer  0x20000000        0x0 C:/Users\Mike\AppData\Roaming\Intelitek\easyC V4 for Cortex\Temp\Autonomous.o
 .vfp11_veneer  0x20000000        0x0 C:/Users\Mike\AppData\Roaming\Intelitek\easyC V4 for Cortex\Temp\OperatorControl.o
 .vfp11_veneer  0x20000000        0x0 cortex/vexlib/easyCRuntime/easyCRuntimeLib.lib(easyCRuntime.o)
 .vfp11_veneer  0x20000000        0x0 cortex/vexlib/easyCRuntime/easyCRuntimeLib.lib(Clock.o)
 .vfp11_veneer  0x20000000        0x0 cortex/vexlib/easyCRuntime/easyCRuntimeLib.lib(Comm.o)
 .vfp11_veneer  0x20000000        0x0 cortex/vexlib/easyCRuntime/easyCRuntimeLib.lib(Config.o)
 .vfp11_veneer  0x20000000        0x0 cortex/vexlib/easyCRuntime/easyCRuntimeLib.lib(InputOutput.o)
 .vfp11_veneer  0x20000000        0x0 cortex/vexlib/easyCRuntime/easyCRuntimeLib.lib(Interrupts.o)
 .vfp11_veneer  0x20000000        0x0 cortex/vexlib/easyCRuntime/easyCRuntimeLib.lib(LCD.o)
 .vfp11_veneer  0x20000000        0x0 cortex/vexlib/easyCRuntime/easyCRuntimeLib.lib(Motors.o)
 .vfp11_veneer  0x20000000        0x0 cortex/vexlib/easyCRuntime/easyCRuntimeLib.lib(OI.o)
 .vfp11_veneer  0x20000000        0x0 cortex/vexlib/easyCRuntime/easyCRuntimeLib.lib(Print.o)
 .vfp11_veneer  0x20000000        0x0 cortex/vexlib/easyCRuntime/easyCRuntimeLib.lib(stm32f10x_it.o)
 .vfp11_veneer  0x20000000        0x0 cortex/vexlib/easyCRuntime/easyCRuntimeLib.lib(ddt_support.o)
 .vfp11_veneer  0x20000000        0x0 cortex/vexlib/easyCRuntime/easyCRuntimeLib.lib(stm32f10x_adc.o)
 .vfp11_veneer  0x20000000        0x0 cortex/vexlib/easyCRuntime/easyCRuntimeLib.lib(stm32f10x_dma.o)
 .vfp11_veneer  0x20000000        0x0 cortex/vexlib/easyCRuntime/easyCRuntimeLib.lib(stm32f10x_exti.o)
 .vfp11_veneer  0x20000000        0x0 cortex/vexlib/easyCRuntime/easyCRuntimeLib.lib(stm32f10x_flash.o)
 .vfp11_veneer  0x20000000        0x0 cortex/vexlib/easyCRuntime/easyCRuntimeLib.lib(stm32f10x_gpio.o)
 .vfp11_veneer  0x20000000        0x0 cortex/vexlib/easyCRuntime/easyCRuntimeLib.lib(stm32f10x_nvic.o)
 .vfp11_veneer  0x20000000        0x0 cortex/vexlib/easyCRuntime/easyCRuntimeLib.lib(stm32f10x_rcc.o)
 .vfp11_veneer  0x20000000        0x0 cortex/vexlib/easyCRuntime/easyCRuntimeLib.lib(stm32f10x_spi.o)
 .vfp11_veneer  0x20000000        0x0 cortex/vexlib/easyCRuntime/easyCRuntimeLib.lib(stm32f10x_systick.o)
 .vfp11_veneer  0x20000000        0x0 cortex/vexlib/easyCRuntime/easyCRuntimeLib.lib(stm32f10x_tim.o)
 .vfp11_veneer  0x20000000        0x0 cortex/vexlib/easyCRuntime/easyCRuntimeLib.lib(stm32f10x_usart.o)
 .vfp11_veneer  0x20000000        0x0 cortex/vexlib/easyCRuntime/easyCRuntimeLib.lib(cortexm3_macro.o)
 .vfp11_veneer  0x20000000        0x0 cortex/vexlib/Link/STM32x_io_putchar_thumb.a(syscalls.o)
 .vfp11_veneer  0x20000000        0x0 cortex/vexlib/Link/e_stdio_thumb.a(_sp_printf.o)
 .vfp11_veneer  0x20000000        0x0 cortex/vexlib/Link/e_stdio_thumb.a(_sp_vfprintf.o)
 .vfp11_veneer  0x20000000        0x0 cortex/vexlib/Link/e_stdio_thumb.a(_sp_puts.o)
 .vfp11_veneer  0x20000000        0x0 cortex/vexlib/Link/e_stdio_thumb.a(_sp_sprintf.o)
 .vfp11_veneer  0x20000000        0x0 cortex/vexlib/Link/e_stdio_thumb.a(small_dtoa.o)
 .vfp11_veneer  0x20000000        0x0 cortex/vexlib/Link/e_stdio_thumb.a(small_wcsrtombs.o)
 .vfp11_veneer  0x20000000        0x0 cortex/vexlib/Link/e_stdio_thumb.a(small_wcrtomb.o)
 .vfp11_veneer  0x20000000        0x0 cortex/vexlib/Link/e_stdio_thumb.a(small_mprec.o)

.janus_2cc_veneer
                0x20000000        0x0
 .janus_2cc_veneer
                0x20000000        0x0 cortex/vexlib/Startup/Startup.o
 .janus_2cc_veneer
                0x20000000        0x0 C:/Users\Mike\AppData\Roaming\Intelitek\easyC V4 for Cortex\Temp\Main.o
 .janus_2cc_veneer
                0x20000000        0x0 C:/Users\Mike\AppData\Roaming\Intelitek\easyC V4 for Cortex\Temp\MainIO.o
 .janus_2cc_veneer
                0x20000000        0x0 C:/Users\Mike\AppData\Roaming\Intelitek\easyC V4 for Cortex\Temp\Globals.o
 .janus_2cc_veneer
                0x20000000        0x0 C:/Users\Mike\AppData\Roaming\Intelitek\easyC V4 for Cortex\Temp\Initialize.o
 .janus_2cc_veneer
                0x20000000        0x0 C:/Users\Mike\AppData\Roaming\Intelitek\easyC V4 for Cortex\Temp\Autonomous.o
 .janus_2cc_veneer
                0x20000000        0x0 C:/Users\Mike\AppData\Roaming\Intelitek\easyC V4 for Cortex\Temp\OperatorControl.o
 .janus_2cc_veneer
                0x20000000        0x0 cortex/vexlib/easyCRuntime/easyCRuntimeLib.lib(easyCRuntime.o)
 .janus_2cc_veneer
                0x20000000        0x0 cortex/vexlib/easyCRuntime/easyCRuntimeLib.lib(Clock.o)
 .janus_2cc_veneer
                0x20000000        0x0 cortex/vexlib/easyCRuntime/easyCRuntimeLib.lib(Comm.o)
 .janus_2cc_veneer
                0x20000000        0x0 cortex/vexlib/easyCRuntime/easyCRuntimeLib.lib(Config.o)
 .janus_2cc_veneer
                0x20000000        0x0 cortex/vexlib/easyCRuntime/easyCRuntimeLib.lib(InputOutput.o)
 .janus_2cc_veneer
                0x20000000        0x0 cortex/vexlib/easyCRuntime/easyCRuntimeLib.lib(Interrupts.o)
 .janus_2cc_veneer
                0x20000000        0x0 cortex/vexlib/easyCRuntime/easyCRuntimeLib.lib(LCD.o)
 .janus_2cc_veneer
                0x20000000        0x0 cortex/vexlib/easyCRuntime/easyCRuntimeLib.lib(Motors.o)
 .janus_2cc_veneer
                0x20000000        0x0 cortex/vexlib/easyCRuntime/easyCRuntimeLib.lib(OI.o)
 .janus_2cc_veneer
                0x20000000        0x0 cortex/vexlib/easyCRuntime/easyCRuntimeLib.lib(Print.o)
 .janus_2cc_veneer
                0x20000000        0x0 cortex/vexlib/easyCRuntime/easyCRuntimeLib.lib(stm32f10x_it.o)
 .janus_2cc_veneer
                0x20000000        0x0 cortex/vexlib/easyCRuntime/easyCRuntimeLib.lib(ddt_support.o)
 .janus_2cc_veneer
                0x20000000        0x0 cortex/vexlib/easyCRuntime/easyCRuntimeLib.lib(stm32f10x_adc.o)
 .janus_2cc_veneer
                0x20000000        0x0 cortex/vexlib/easyCRuntime/easyCRuntimeLib.lib(stm32f10x_dma.o)
 .janus_2cc_veneer
                0x20000000        0x0 cortex/vexlib/easyCRuntime/easyCRuntimeLib.lib(stm32f10x_exti.o)
 .janus_2cc_veneer
                0x20000000        0x0 cortex/vexlib/easyCRuntime/easyCRuntimeLib.lib(stm32f10x_flash.o)
 .janus_2cc_veneer
                0x20000000        0x0 cortex/vexlib/easyCRuntime/easyCRuntimeLib.lib(stm32f10x_gpio.o)
 .janus_2cc_veneer
                0x20000000        0x0 cortex/vexlib/easyCRuntime/easyCRuntimeLib.lib(stm32f10x_nvic.o)
 .janus_2cc_veneer
                0x20000000        0x0 cortex/vexlib/easyCRuntime/easyCRuntimeLib.lib(stm32f10x_rcc.o)
 .janus_2cc_veneer
                0x20000000        0x0 cortex/vexlib/easyCRuntime/easyCRuntimeLib.lib(stm32f10x_spi.o)
 .janus_2cc_veneer
                0x20000000        0x0 cortex/vexlib/easyCRuntime/easyCRuntimeLib.lib(stm32f10x_systick.o)
 .janus_2cc_veneer
                0x20000000        0x0 cortex/vexlib/easyCRuntime/easyCRuntimeLib.lib(stm32f10x_tim.o)
 .janus_2cc_veneer
                0x20000000        0x0 cortex/vexlib/easyCRuntime/easyCRuntimeLib.lib(stm32f10x_usart.o)
 .janus_2cc_veneer
                0x20000000        0x0 cortex/vexlib/easyCRuntime/easyCRuntimeLib.lib(cortexm3_macro.o)
 .janus_2cc_veneer
                0x20000000        0x0 cortex/vexlib/Link/STM32x_io_putchar_thumb.a(syscalls.o)
 .janus_2cc_veneer
                0x20000000        0x0 cortex/vexlib/Link/e_stdio_thumb.a(_sp_printf.o)
 .janus_2cc_veneer
                0x20000000        0x0 cortex/vexlib/Link/e_stdio_thumb.a(_sp_vfprintf.o)
 .janus_2cc_veneer
                0x20000000        0x0 cortex/vexlib/Link/e_stdio_thumb.a(_sp_puts.o)
 .janus_2cc_veneer
                0x20000000        0x0 cortex/vexlib/Link/e_stdio_thumb.a(_sp_sprintf.o)
 .janus_2cc_veneer
                0x20000000        0x0 cortex/vexlib/Link/e_stdio_thumb.a(small_dtoa.o)
 .janus_2cc_veneer
                0x20000000        0x0 cortex/vexlib/Link/e_stdio_thumb.a(small_wcsrtombs.o)
 .janus_2cc_veneer
                0x20000000        0x0 cortex/vexlib/Link/e_stdio_thumb.a(small_wcrtomb.o)
 .janus_2cc_veneer
                0x20000000        0x0 cortex/vexlib/Link/e_stdio_thumb.a(small_mprec.o)

.v4_bx          0x20000000        0x0
 .v4_bx         0x20000000        0x0 cortex/vexlib/Startup/Startup.o
 .v4_bx         0x20000000        0x0 C:/Users\Mike\AppData\Roaming\Intelitek\easyC V4 for Cortex\Temp\Main.o
 .v4_bx         0x20000000        0x0 C:/Users\Mike\AppData\Roaming\Intelitek\easyC V4 for Cortex\Temp\MainIO.o
 .v4_bx         0x20000000        0x0 C:/Users\Mike\AppData\Roaming\Intelitek\easyC V4 for Cortex\Temp\Globals.o
 .v4_bx         0x20000000        0x0 C:/Users\Mike\AppData\Roaming\Intelitek\easyC V4 for Cortex\Temp\Initialize.o
 .v4_bx         0x20000000        0x0 C:/Users\Mike\AppData\Roaming\Intelitek\easyC V4 for Cortex\Temp\Autonomous.o
 .v4_bx         0x20000000        0x0 C:/Users\Mike\AppData\Roaming\Intelitek\easyC V4 for Cortex\Temp\OperatorControl.o
 .v4_bx         0x20000000        0x0 cortex/vexlib/easyCRuntime/easyCRuntimeLib.lib(easyCRuntime.o)
 .v4_bx         0x20000000        0x0 cortex/vexlib/easyCRuntime/easyCRuntimeLib.lib(Clock.o)
 .v4_bx         0x20000000        0x0 cortex/vexlib/easyCRuntime/easyCRuntimeLib.lib(Comm.o)
 .v4_bx         0x20000000        0x0 cortex/vexlib/easyCRuntime/easyCRuntimeLib.lib(Config.o)
 .v4_bx         0x20000000        0x0 cortex/vexlib/easyCRuntime/easyCRuntimeLib.lib(InputOutput.o)
 .v4_bx         0x20000000        0x0 cortex/vexlib/easyCRuntime/easyCRuntimeLib.lib(Interrupts.o)
 .v4_bx         0x20000000        0x0 cortex/vexlib/easyCRuntime/easyCRuntimeLib.lib(LCD.o)
 .v4_bx         0x20000000        0x0 cortex/vexlib/easyCRuntime/easyCRuntimeLib.lib(Motors.o)
 .v4_bx         0x20000000        0x0 cortex/vexlib/easyCRuntime/easyCRuntimeLib.lib(OI.o)
 .v4_bx         0x20000000        0x0 cortex/vexlib/easyCRuntime/easyCRuntimeLib.lib(Print.o)
 .v4_bx         0x20000000        0x0 cortex/vexlib/easyCRuntime/easyCRuntimeLib.lib(stm32f10x_it.o)
 .v4_bx         0x20000000        0x0 cortex/vexlib/easyCRuntime/easyCRuntimeLib.lib(ddt_support.o)
 .v4_bx         0x20000000        0x0 cortex/vexlib/easyCRuntime/easyCRuntimeLib.lib(stm32f10x_adc.o)
 .v4_bx         0x20000000        0x0 cortex/vexlib/easyCRuntime/easyCRuntimeLib.lib(stm32f10x_dma.o)
 .v4_bx         0x20000000        0x0 cortex/vexlib/easyCRuntime/easyCRuntimeLib.lib(stm32f10x_exti.o)
 .v4_bx         0x20000000        0x0 cortex/vexlib/easyCRuntime/easyCRuntimeLib.lib(stm32f10x_flash.o)
 .v4_bx         0x20000000        0x0 cortex/vexlib/easyCRuntime/easyCRuntimeLib.lib(stm32f10x_gpio.o)
 .v4_bx         0x20000000        0x0 cortex/vexlib/easyCRuntime/easyCRuntimeLib.lib(stm32f10x_nvic.o)
 .v4_bx         0x20000000        0x0 cortex/vexlib/easyCRuntime/easyCRuntimeLib.lib(stm32f10x_rcc.o)
 .v4_bx         0x20000000        0x0 cortex/vexlib/easyCRuntime/easyCRuntimeLib.lib(stm32f10x_spi.o)
 .v4_bx         0x20000000        0x0 cortex/vexlib/easyCRuntime/easyCRuntimeLib.lib(stm32f10x_systick.o)
 .v4_bx         0x20000000        0x0 cortex/vexlib/easyCRuntime/easyCRuntimeLib.lib(stm32f10x_tim.o)
 .v4_bx         0x20000000        0x0 cortex/vexlib/easyCRuntime/easyCRuntimeLib.lib(stm32f10x_usart.o)
 .v4_bx         0x20000000        0x0 cortex/vexlib/easyCRuntime/easyCRuntimeLib.lib(cortexm3_macro.o)
 .v4_bx         0x20000000        0x0 cortex/vexlib/Link/STM32x_io_putchar_thumb.a(syscalls.o)
 .v4_bx         0x20000000        0x0 cortex/vexlib/Link/e_stdio_thumb.a(_sp_printf.o)
 .v4_bx         0x20000000        0x0 cortex/vexlib/Link/e_stdio_thumb.a(_sp_vfprintf.o)
 .v4_bx         0x20000000        0x0 cortex/vexlib/Link/e_stdio_thumb.a(_sp_puts.o)
 .v4_bx         0x20000000        0x0 cortex/vexlib/Link/e_stdio_thumb.a(_sp_sprintf.o)
 .v4_bx         0x20000000        0x0 cortex/vexlib/Link/e_stdio_thumb.a(small_dtoa.o)
 .v4_bx         0x20000000        0x0 cortex/vexlib/Link/e_stdio_thumb.a(small_wcsrtombs.o)
 .v4_bx         0x20000000        0x0 cortex/vexlib/Link/e_stdio_thumb.a(small_wcrtomb.o)
 .v4_bx         0x20000000        0x0 cortex/vexlib/Link/e_stdio_thumb.a(small_mprec.o)

.data           0x20000000      0x180 load address 0x0800a028
                0x20000000                . = ALIGN (0x4)
                0x20000000                _sdata = .
 *(.data)
 .data          0x20000000        0x8 cortex/vexlib/easyCRuntime/easyCRuntimeLib.lib(Comm.o)
                0x20000000                tx_restart1
 .data          0x20000008       0x84 cortex/vexlib/easyCRuntime/easyCRuntimeLib.lib(InputOutput.o)
                0x2000007d                ain_ports
                0x20000008                dio_gpios
                0x20000070                dio_config
 .data          0x2000008c       0xf4 c:/easyc/#tools/arm-gcc/bin/../lib/gcc/arm-none-eabi/4.3.2/../../../../arm-none-eabi/lib/thumb2/libc.a(lib_a-impure.o)
                0x2000008c                _impure_ptr
 *(.data.*)
 *(.RAMtext)
                0x20000180                . = ALIGN (0x4)
                0x20000180                _edata = .

.bss            0x20000180      0x540 load address 0x0800a1a8
                0x20000180                . = ALIGN (0x4)
                0x20000180                _sbss = .
 *(.bss)
 .bss           0x20000180       0x14 cortex/vexlib/Startup/Startup.o
                0x20000180                _gameStartTime
                0x20000190                _mcu_initialized
                0x20000188                _competitionMode
                0x2000018c                _operatorTime
                0x20000192                _competitionMaster
                0x20000191                previousEnabled
                0x20000184                previousAutonomous
 .bss           0x20000194        0x1 cortex/vexlib/easyCRuntime/easyCRuntimeLib.lib(easyCRuntime.o)
                0x20000194                _debug_info__
 *fill*         0x20000195        0x3 00
 .bss           0x20000198       0x80 cortex/vexlib/easyCRuntime/easyCRuntimeLib.lib(Clock.o)
                0x2000019f                pwmStatusFlags
                0x2000019c                pwm2Index
                0x2000019a                pwm1Index
                0x20000198                capture
                0x2000019e                updateMaster
 .bss           0x20000218      0x224 cortex/vexlib/easyCRuntime/easyCRuntimeLib.lib(Comm.o)
                0x20000436                usartPort
                0x20000221                rx1Timeout
                0x2000032c                tbuf1
                0x20000224                rbuf1
                0x20000223                systemStateFlags
                0x20000434                joystickActive
                0x2000021c                masterPtr
                0x20000220                dataFromPC
                0x20000218                slavePtr
                0x20000222                rx2Timeout
                0x20000437                crystalActive
 .bss           0x2000043c       0x10 cortex/vexlib/easyCRuntime/easyCRuntimeLib.lib(InputOutput.o)
                0x2000043c                ain_adc
 .bss           0x2000044c       0x44 cortex/vexlib/easyCRuntime/easyCRuntimeLib.lib(Interrupts.o)
                0x2000044c                int_handler
 .bss           0x20000490       0x94 cortex/vexlib/easyCRuntime/easyCRuntimeLib.lib(LCD.o)
                0x20000499                latchButtonData
                0x20000496                buttonData
 .bss           0x20000524       0x24 cortex/vexlib/easyCRuntime/easyCRuntimeLib.lib(Motors.o)
                0x20000524                ucLastSwData
 .bss           0x20000548        0x1 cortex/vexlib/easyCRuntime/easyCRuntimeLib.lib(stm32f10x_it.o)
 .bss           0x20000549        0xf cortex/vexlib/easyCRuntime/easyCRuntimeLib.lib(ddt_support.o)
 *(COMMON)
 COMMON         0x20000558       0x50 cortex/vexlib/easyCRuntime/easyCRuntimeLib.lib(Clock.o)
                0x20000558                pwm1
                0x20000580                pwm2
 COMMON         0x200005a8      0x118 cortex/vexlib/easyCRuntime/easyCRuntimeLib.lib(Comm.o)
                0x200005a8                slaveJoystick1
                0x200005b4                rx1
                0x200005f4                rx2
                0x20000634                SPI1_Buffer_Tx
                0x20000674                SPI1_Buffer_Rx
                0x200006b4                slaveJoystick2
                0x200006c0                . = ALIGN (0x4)
                0x200006c0                _ebss = .
                0x200006c0                PROVIDE (end, _ebss)
                0x200006c0                PROVIDE (_end, _ebss)

._usrstack      0x200006c0      0x100 load address 0x0800a6e8
                0x200006c0                . = ALIGN (0x4)
                0x200006c0                _susrstack = .
                0x200007c0                . = (. + _Minimum_Stack_Size)
 *fill*         0x200006c0      0x100 00
                0x200007c0                . = ALIGN (0x4)
                0x200007c0                _eusrstack = .

.b1text
 *(.b1text)
 *(.b1rodata)
 *(.b1rodata*)

.eb0text
 *(.eb0text)
 *(.eb0rodata)
 *(.eb0rodata*)

.eb1text
 *(.eb1text)
 *(.eb1rodata)
 *(.eb1rodata*)

.eb2text
 *(.eb2text)
 *(.eb2rodata)
 *(.eb2rodata*)

.eb3text
 *(.eb3text)
 *(.eb3rodata)
 *(.eb3rodata*)
                0x200007c0                __exidx_start = .
                0x200007c0                __exidx_end = .

/DISCARD/
 libc.a(*)
 libm.a(*)
 libgcc.a(*)

.stab
 *(.stab)

.stabstr
 *(.stabstr)

.stab.excl
 *(.stab.excl)

.stab.exclstr
 *(.stab.exclstr)

.stab.index
 *(.stab.index)

.stab.indexstr
 *(.stab.indexstr)

.comment        0x00000000      0x77f
 *(.comment)
 .comment       0x00000000       0x2a cortex/vexlib/Startup/Startup.o
 .comment       0x0000002a       0x2a C:/Users\Mike\AppData\Roaming\Intelitek\easyC V4 for Cortex\Temp\Main.o
 .comment       0x00000054       0x2a C:/Users\Mike\AppData\Roaming\Intelitek\easyC V4 for Cortex\Temp\MainIO.o
 .comment       0x0000007e       0x2a C:/Users\Mike\AppData\Roaming\Intelitek\easyC V4 for Cortex\Temp\Globals.o
 .comment       0x000000a8       0x2a C:/Users\Mike\AppData\Roaming\Intelitek\easyC V4 for Cortex\Temp\Initialize.o
 .comment       0x000000d2       0x2a C:/Users\Mike\AppData\Roaming\Intelitek\easyC V4 for Cortex\Temp\Autonomous.o
 .comment       0x000000fc       0x2a C:/Users\Mike\AppData\Roaming\Intelitek\easyC V4 for Cortex\Temp\OperatorControl.o
 .comment       0x00000126       0x2a cortex/vexlib/easyCRuntime/easyCRuntimeLib.lib(easyCRuntime.o)
 .comment       0x00000150       0x2a cortex/vexlib/easyCRuntime/easyCRuntimeLib.lib(Clock.o)
 .comment       0x0000017a       0x2a cortex/vexlib/easyCRuntime/easyCRuntimeLib.lib(Comm.o)
 .comment       0x000001a4       0x2a cortex/vexlib/easyCRuntime/easyCRuntimeLib.lib(Config.o)
 .comment       0x000001ce       0x2a cortex/vexlib/easyCRuntime/easyCRuntimeLib.lib(InputOutput.o)
 .comment       0x000001f8       0x2a cortex/vexlib/easyCRuntime/easyCRuntimeLib.lib(Interrupts.o)
 .comment       0x00000222       0x2a cortex/vexlib/easyCRuntime/easyCRuntimeLib.lib(LCD.o)
 .comment       0x0000024c       0x2a cortex/vexlib/easyCRuntime/easyCRuntimeLib.lib(Motors.o)
 .comment       0x00000276       0x2a cortex/vexlib/easyCRuntime/easyCRuntimeLib.lib(OI.o)
 .comment       0x000002a0       0x2a cortex/vexlib/easyCRuntime/easyCRuntimeLib.lib(Print.o)
 .comment       0x000002ca       0x2a cortex/vexlib/easyCRuntime/easyCRuntimeLib.lib(stm32f10x_it.o)
 .comment       0x000002f4       0x2a cortex/vexlib/easyCRuntime/easyCRuntimeLib.lib(ddt_support.o)
 .comment       0x0000031e       0x2a cortex/vexlib/easyCRuntime/easyCRuntimeLib.lib(stm32f10x_adc.o)
 .comment       0x00000348       0x2a cortex/vexlib/easyCRuntime/easyCRuntimeLib.lib(stm32f10x_dma.o)
 .comment       0x00000372       0x2a cortex/vexlib/easyCRuntime/easyCRuntimeLib.lib(stm32f10x_exti.o)
 .comment       0x0000039c       0x2a cortex/vexlib/easyCRuntime/easyCRuntimeLib.lib(stm32f10x_flash.o)
 .comment       0x000003c6       0x2a cortex/vexlib/easyCRuntime/easyCRuntimeLib.lib(stm32f10x_gpio.o)
 .comment       0x000003f0       0x2a cortex/vexlib/easyCRuntime/easyCRuntimeLib.lib(stm32f10x_nvic.o)
 .comment       0x0000041a       0x2a cortex/vexlib/easyCRuntime/easyCRuntimeLib.lib(stm32f10x_rcc.o)
 .comment       0x00000444       0x2a cortex/vexlib/easyCRuntime/easyCRuntimeLib.lib(stm32f10x_spi.o)
 .comment       0x0000046e       0x2a cortex/vexlib/easyCRuntime/easyCRuntimeLib.lib(stm32f10x_systick.o)
 .comment       0x00000498       0x2a cortex/vexlib/easyCRuntime/easyCRuntimeLib.lib(stm32f10x_tim.o)
 .comment       0x000004c2       0x2a cortex/vexlib/easyCRuntime/easyCRuntimeLib.lib(stm32f10x_usart.o)
 .comment       0x000004ec       0x2b cortex/vexlib/Link/STM32x_io_putchar_thumb.a(syscalls.o)
 .comment       0x00000517       0x4d cortex/vexlib/Link/e_stdio_thumb.a(_sp_printf.o)
 .comment       0x00000564       0x4d cortex/vexlib/Link/e_stdio_thumb.a(_sp_vfprintf.o)
 .comment       0x000005b1       0x4d cortex/vexlib/Link/e_stdio_thumb.a(_sp_puts.o)
 .comment       0x000005fe       0x4d cortex/vexlib/Link/e_stdio_thumb.a(_sp_sprintf.o)
 .comment       0x0000064b       0x4d cortex/vexlib/Link/e_stdio_thumb.a(small_dtoa.o)
 .comment       0x00000698       0x4d cortex/vexlib/Link/e_stdio_thumb.a(small_wcsrtombs.o)
 .comment       0x000006e5       0x4d cortex/vexlib/Link/e_stdio_thumb.a(small_wcrtomb.o)
 .comment       0x00000732       0x4d cortex/vexlib/Link/e_stdio_thumb.a(small_mprec.o)

.debug
 *(.debug)

.line
 *(.line)

.debug_srcinfo
 *(.debug_srcinfo)

.debug_sfnames
 *(.debug_sfnames)

.debug_aranges
 *(.debug_aranges)

.debug_pubnames
 *(.debug_pubnames)

.debug_info
 *(.debug_info .gnu.linkonce.wi.*)

.debug_abbrev
 *(.debug_abbrev)

.debug_line
 *(.debug_line)

.debug_frame
 *(.debug_frame)

.debug_str
 *(.debug_str)

.debug_loc
 *(.debug_loc)

.debug_macinfo
 *(.debug_macinfo)

.debug_weaknames
 *(.debug_weaknames)

.debug_funcnames
 *(.debug_funcnames)

.debug_typenames
 *(.debug_typenames)

.debug_varnames
 *(.debug_varnames)
START GROUP
LOAD c:/easyc/#tools/arm-gcc/bin/../lib/gcc/arm-none-eabi/4.3.2/thumb2/libgcc.a
LOAD c:/easyc/#tools/arm-gcc/bin/../lib/gcc/arm-none-eabi/4.3.2/../../../../arm-none-eabi/lib/thumb2/libc.a
END GROUP
OUTPUT(easyCRuntime.elf elf32-littlearm)

.ARM.attributes
                0x00000000       0x31
 .ARM.attributes
                0x00000000       0x31 cortex/vexlib/Startup/Startup.o
 .ARM.attributes
                0x00000031       0x31 C:/Users\Mike\AppData\Roaming\Intelitek\easyC V4 for Cortex\Temp\Main.o
 .ARM.attributes
                0x00000062       0x31 C:/Users\Mike\AppData\Roaming\Intelitek\easyC V4 for Cortex\Temp\MainIO.o
 .ARM.attributes
                0x00000093       0x2f C:/Users\Mike\AppData\Roaming\Intelitek\easyC V4 for Cortex\Temp\Globals.o
 .ARM.attributes
                0x000000c2       0x31 C:/Users\Mike\AppData\Roaming\Intelitek\easyC V4 for Cortex\Temp\Initialize.o
 .ARM.attributes
                0x000000f3       0x31 C:/Users\Mike\AppData\Roaming\Intelitek\easyC V4 for Cortex\Temp\Autonomous.o
 .ARM.attributes
                0x00000124       0x31 C:/Users\Mike\AppData\Roaming\Intelitek\easyC V4 for Cortex\Temp\OperatorControl.o
 .ARM.attributes
                0x00000155       0x31 cortex/vexlib/easyCRuntime/easyCRuntimeLib.lib(easyCRuntime.o)
 .ARM.attributes
                0x00000186       0x31 cortex/vexlib/easyCRuntime/easyCRuntimeLib.lib(Clock.o)
 .ARM.attributes
                0x000001b7       0x31 cortex/vexlib/easyCRuntime/easyCRuntimeLib.lib(Comm.o)
 .ARM.attributes
                0x000001e8       0x31 cortex/vexlib/easyCRuntime/easyCRuntimeLib.lib(Config.o)
 .ARM.attributes
                0x00000219       0x31 cortex/vexlib/easyCRuntime/easyCRuntimeLib.lib(InputOutput.o)
 .ARM.attributes
                0x0000024a       0x31 cortex/vexlib/easyCRuntime/easyCRuntimeLib.lib(Interrupts.o)
 .ARM.attributes
                0x0000027b       0x31 cortex/vexlib/easyCRuntime/easyCRuntimeLib.lib(LCD.o)
 .ARM.attributes
                0x000002ac       0x31 cortex/vexlib/easyCRuntime/easyCRuntimeLib.lib(Motors.o)
 .ARM.attributes
                0x000002dd       0x31 cortex/vexlib/easyCRuntime/easyCRuntimeLib.lib(OI.o)
 .ARM.attributes
                0x0000030e       0x31 cortex/vexlib/easyCRuntime/easyCRuntimeLib.lib(Print.o)
 .ARM.attributes
                0x0000033f       0x31 cortex/vexlib/easyCRuntime/easyCRuntimeLib.lib(stm32f10x_it.o)
 .ARM.attributes
                0x00000370       0x31 cortex/vexlib/easyCRuntime/easyCRuntimeLib.lib(ddt_support.o)
 .ARM.attributes
                0x000003a1       0x31 cortex/vexlib/easyCRuntime/easyCRuntimeLib.lib(stm32f10x_adc.o)
 .ARM.attributes
                0x000003d2       0x31 cortex/vexlib/easyCRuntime/easyCRuntimeLib.lib(stm32f10x_dma.o)
 .ARM.attributes
                0x00000403       0x31 cortex/vexlib/easyCRuntime/easyCRuntimeLib.lib(stm32f10x_exti.o)
 .ARM.attributes
                0x00000434       0x31 cortex/vexlib/easyCRuntime/easyCRuntimeLib.lib(stm32f10x_flash.o)
 .ARM.attributes
                0x00000465       0x31 cortex/vexlib/easyCRuntime/easyCRuntimeLib.lib(stm32f10x_gpio.o)
 .ARM.attributes
                0x00000496       0x31 cortex/vexlib/easyCRuntime/easyCRuntimeLib.lib(stm32f10x_nvic.o)
 .ARM.attributes
                0x000004c7       0x31 cortex/vexlib/easyCRuntime/easyCRuntimeLib.lib(stm32f10x_rcc.o)
 .ARM.attributes
                0x000004f8       0x31 cortex/vexlib/easyCRuntime/easyCRuntimeLib.lib(stm32f10x_spi.o)
 .ARM.attributes
                0x00000529       0x31 cortex/vexlib/easyCRuntime/easyCRuntimeLib.lib(stm32f10x_systick.o)
 .ARM.attributes
                0x0000055a       0x31 cortex/vexlib/easyCRuntime/easyCRuntimeLib.lib(stm32f10x_tim.o)
 .ARM.attributes
                0x0000058b       0x31 cortex/vexlib/easyCRuntime/easyCRuntimeLib.lib(stm32f10x_usart.o)
 .ARM.attributes
                0x000005bc       0x21 cortex/vexlib/easyCRuntime/easyCRuntimeLib.lib(cortexm3_macro.o)
 .ARM.attributes
                0x000005dd       0x31 cortex/vexlib/Link/STM32x_io_putchar_thumb.a(syscalls.o)
 .ARM.attributes
                0x0000060e       0x2e cortex/vexlib/Link/e_stdio_thumb.a(_sp_printf.o)
 .ARM.attributes
                0x0000063c       0x2e cortex/vexlib/Link/e_stdio_thumb.a(_sp_vfprintf.o)
 .ARM.attributes
                0x0000066a       0x2e cortex/vexlib/Link/e_stdio_thumb.a(_sp_puts.o)
 .ARM.attributes
                0x00000698       0x2e cortex/vexlib/Link/e_stdio_thumb.a(_sp_sprintf.o)
 .ARM.attributes
                0x000006c6       0x2e cortex/vexlib/Link/e_stdio_thumb.a(small_dtoa.o)
 .ARM.attributes
                0x000006f4       0x2e cortex/vexlib/Link/e_stdio_thumb.a(small_wcsrtombs.o)
 .ARM.attributes
                0x00000722       0x2e cortex/vexlib/Link/e_stdio_thumb.a(small_wcrtomb.o)
 .ARM.attributes
                0x00000750       0x2e cortex/vexlib/Link/e_stdio_thumb.a(small_mprec.o)
